Archive member included to satisfy reference by file (symbol)

c:/program files (x86)/atmel/studio/7.0/toolchain/avr8/avr8-gnu-toolchain/bin/../lib/gcc/avr/5.4.0/../../../../avr/lib/avrxmega6\libprintf_flt.a(vfprintf_flt.o)
                              (vfprintf)
c:/program files (x86)/atmel/studio/7.0/toolchain/avr8/avr8-gnu-toolchain/bin/../lib/gcc/avr/5.4.0/../../../../avr/lib/avrxmega6\libm.a(addsf3.o)
                              src/twi.o (__subsf3)
c:/program files (x86)/atmel/studio/7.0/toolchain/avr8/avr8-gnu-toolchain/bin/../lib/gcc/avr/5.4.0/../../../../avr/lib/avrxmega6\libm.a(addsf3x.o)
                              c:/program files (x86)/atmel/studio/7.0/toolchain/avr8/avr8-gnu-toolchain/bin/../lib/gcc/avr/5.4.0/../../../../avr/lib/avrxmega6\libm.a(addsf3.o) (__addsf3x)
c:/program files (x86)/atmel/studio/7.0/toolchain/avr8/avr8-gnu-toolchain/bin/../lib/gcc/avr/5.4.0/../../../../avr/lib/avrxmega6\libm.a(cmpsf2.o)
                              src/twi.o (__eqsf2)
c:/program files (x86)/atmel/studio/7.0/toolchain/avr8/avr8-gnu-toolchain/bin/../lib/gcc/avr/5.4.0/../../../../avr/lib/avrxmega6\libm.a(cos.o)
                              src/twi.o (cos)
c:/program files (x86)/atmel/studio/7.0/toolchain/avr8/avr8-gnu-toolchain/bin/../lib/gcc/avr/5.4.0/../../../../avr/lib/avrxmega6\libm.a(divsf3.o)
                              src/usb.o (__divsf3)
c:/program files (x86)/atmel/studio/7.0/toolchain/avr8/avr8-gnu-toolchain/bin/../lib/gcc/avr/5.4.0/../../../../avr/lib/avrxmega6\libm.a(divsf3x.o)
                              c:/program files (x86)/atmel/studio/7.0/toolchain/avr8/avr8-gnu-toolchain/bin/../lib/gcc/avr/5.4.0/../../../../avr/lib/avrxmega6\libm.a(divsf3.o) (__divsf3x)
c:/program files (x86)/atmel/studio/7.0/toolchain/avr8/avr8-gnu-toolchain/bin/../lib/gcc/avr/5.4.0/../../../../avr/lib/avrxmega6\libm.a(fixsfsi.o)
                              src/twi.o (__fixsfsi)
c:/program files (x86)/atmel/studio/7.0/toolchain/avr8/avr8-gnu-toolchain/bin/../lib/gcc/avr/5.4.0/../../../../avr/lib/avrxmega6\libm.a(fixunssfsi.o)
                              src/twi.o (__fixunssfsi)
c:/program files (x86)/atmel/studio/7.0/toolchain/avr8/avr8-gnu-toolchain/bin/../lib/gcc/avr/5.4.0/../../../../avr/lib/avrxmega6\libm.a(floatsisf.o)
                              src/main.o (__floatunsisf)
c:/program files (x86)/atmel/studio/7.0/toolchain/avr8/avr8-gnu-toolchain/bin/../lib/gcc/avr/5.4.0/../../../../avr/lib/avrxmega6\libm.a(fp_cmp.o)
                              c:/program files (x86)/atmel/studio/7.0/toolchain/avr8/avr8-gnu-toolchain/bin/../lib/gcc/avr/5.4.0/../../../../avr/lib/avrxmega6\libm.a(cmpsf2.o) (__fp_cmp)
c:/program files (x86)/atmel/studio/7.0/toolchain/avr8/avr8-gnu-toolchain/bin/../lib/gcc/avr/5.4.0/../../../../avr/lib/avrxmega6\libm.a(fp_inf.o)
                              c:/program files (x86)/atmel/studio/7.0/toolchain/avr8/avr8-gnu-toolchain/bin/../lib/gcc/avr/5.4.0/../../../../avr/lib/avrxmega6\libm.a(addsf3x.o) (__fp_inf)
c:/program files (x86)/atmel/studio/7.0/toolchain/avr8/avr8-gnu-toolchain/bin/../lib/gcc/avr/5.4.0/../../../../avr/lib/avrxmega6\libm.a(fp_nan.o)
                              c:/program files (x86)/atmel/studio/7.0/toolchain/avr8/avr8-gnu-toolchain/bin/../lib/gcc/avr/5.4.0/../../../../avr/lib/avrxmega6\libm.a(addsf3x.o) (__fp_nan)
c:/program files (x86)/atmel/studio/7.0/toolchain/avr8/avr8-gnu-toolchain/bin/../lib/gcc/avr/5.4.0/../../../../avr/lib/avrxmega6\libm.a(fp_pscA.o)
                              c:/program files (x86)/atmel/studio/7.0/toolchain/avr8/avr8-gnu-toolchain/bin/../lib/gcc/avr/5.4.0/../../../../avr/lib/avrxmega6\libm.a(addsf3x.o) (__fp_pscA)
c:/program files (x86)/atmel/studio/7.0/toolchain/avr8/avr8-gnu-toolchain/bin/../lib/gcc/avr/5.4.0/../../../../avr/lib/avrxmega6\libm.a(fp_pscB.o)
                              c:/program files (x86)/atmel/studio/7.0/toolchain/avr8/avr8-gnu-toolchain/bin/../lib/gcc/avr/5.4.0/../../../../avr/lib/avrxmega6\libm.a(addsf3x.o) (__fp_pscB)
c:/program files (x86)/atmel/studio/7.0/toolchain/avr8/avr8-gnu-toolchain/bin/../lib/gcc/avr/5.4.0/../../../../avr/lib/avrxmega6\libm.a(fp_rempio2.o)
                              c:/program files (x86)/atmel/studio/7.0/toolchain/avr8/avr8-gnu-toolchain/bin/../lib/gcc/avr/5.4.0/../../../../avr/lib/avrxmega6\libm.a(cos.o) (__fp_rempio2)
c:/program files (x86)/atmel/studio/7.0/toolchain/avr8/avr8-gnu-toolchain/bin/../lib/gcc/avr/5.4.0/../../../../avr/lib/avrxmega6\libm.a(fp_round.o)
                              c:/program files (x86)/atmel/studio/7.0/toolchain/avr8/avr8-gnu-toolchain/bin/../lib/gcc/avr/5.4.0/../../../../avr/lib/avrxmega6\libm.a(addsf3.o) (__fp_round)
c:/program files (x86)/atmel/studio/7.0/toolchain/avr8/avr8-gnu-toolchain/bin/../lib/gcc/avr/5.4.0/../../../../avr/lib/avrxmega6\libm.a(fp_sinus.o)
                              c:/program files (x86)/atmel/studio/7.0/toolchain/avr8/avr8-gnu-toolchain/bin/../lib/gcc/avr/5.4.0/../../../../avr/lib/avrxmega6\libm.a(cos.o) (__fp_sinus)
c:/program files (x86)/atmel/studio/7.0/toolchain/avr8/avr8-gnu-toolchain/bin/../lib/gcc/avr/5.4.0/../../../../avr/lib/avrxmega6\libm.a(fp_split3.o)
                              c:/program files (x86)/atmel/studio/7.0/toolchain/avr8/avr8-gnu-toolchain/bin/../lib/gcc/avr/5.4.0/../../../../avr/lib/avrxmega6\libm.a(addsf3x.o) (__fp_split3)
c:/program files (x86)/atmel/studio/7.0/toolchain/avr8/avr8-gnu-toolchain/bin/../lib/gcc/avr/5.4.0/../../../../avr/lib/avrxmega6\libm.a(fp_zero.o)
                              c:/program files (x86)/atmel/studio/7.0/toolchain/avr8/avr8-gnu-toolchain/bin/../lib/gcc/avr/5.4.0/../../../../avr/lib/avrxmega6\libm.a(addsf3x.o) (__fp_zero)
c:/program files (x86)/atmel/studio/7.0/toolchain/avr8/avr8-gnu-toolchain/bin/../lib/gcc/avr/5.4.0/../../../../avr/lib/avrxmega6\libm.a(gesf2.o)
                              src/twi.o (__gesf2)
c:/program files (x86)/atmel/studio/7.0/toolchain/avr8/avr8-gnu-toolchain/bin/../lib/gcc/avr/5.4.0/../../../../avr/lib/avrxmega6\libm.a(mulsf3.o)
                              src/twi.o (__mulsf3)
c:/program files (x86)/atmel/studio/7.0/toolchain/avr8/avr8-gnu-toolchain/bin/../lib/gcc/avr/5.4.0/../../../../avr/lib/avrxmega6\libm.a(mulsf3x.o)
                              c:/program files (x86)/atmel/studio/7.0/toolchain/avr8/avr8-gnu-toolchain/bin/../lib/gcc/avr/5.4.0/../../../../avr/lib/avrxmega6\libm.a(mulsf3.o) (__mulsf3x)
c:/program files (x86)/atmel/studio/7.0/toolchain/avr8/avr8-gnu-toolchain/bin/../lib/gcc/avr/5.4.0/../../../../avr/lib/avrxmega6\libm.a(pow.o)
                              src/twi.o (pow)
c:/program files (x86)/atmel/studio/7.0/toolchain/avr8/avr8-gnu-toolchain/bin/../lib/gcc/avr/5.4.0/../../../../avr/lib/avrxmega6\libm.a(sin.o)
                              src/twi.o (sin)
c:/program files (x86)/atmel/studio/7.0/toolchain/avr8/avr8-gnu-toolchain/bin/../lib/gcc/avr/5.4.0/../../../../avr/lib/avrxmega6\libm.a(exp.o)
                              c:/program files (x86)/atmel/studio/7.0/toolchain/avr8/avr8-gnu-toolchain/bin/../lib/gcc/avr/5.4.0/../../../../avr/lib/avrxmega6\libm.a(pow.o) (exp)
c:/program files (x86)/atmel/studio/7.0/toolchain/avr8/avr8-gnu-toolchain/bin/../lib/gcc/avr/5.4.0/../../../../avr/lib/avrxmega6\libm.a(fp_mpack.o)
                              c:/program files (x86)/atmel/studio/7.0/toolchain/avr8/avr8-gnu-toolchain/bin/../lib/gcc/avr/5.4.0/../../../../avr/lib/avrxmega6\libm.a(fp_rempio2.o) (__fp_mpack_finite)
c:/program files (x86)/atmel/studio/7.0/toolchain/avr8/avr8-gnu-toolchain/bin/../lib/gcc/avr/5.4.0/../../../../avr/lib/avrxmega6\libm.a(fp_powser.o)
                              c:/program files (x86)/atmel/studio/7.0/toolchain/avr8/avr8-gnu-toolchain/bin/../lib/gcc/avr/5.4.0/../../../../avr/lib/avrxmega6\libm.a(exp.o) (__fp_powser)
c:/program files (x86)/atmel/studio/7.0/toolchain/avr8/avr8-gnu-toolchain/bin/../lib/gcc/avr/5.4.0/../../../../avr/lib/avrxmega6\libm.a(fp_powsodd.o)
                              c:/program files (x86)/atmel/studio/7.0/toolchain/avr8/avr8-gnu-toolchain/bin/../lib/gcc/avr/5.4.0/../../../../avr/lib/avrxmega6\libm.a(fp_sinus.o) (__fp_powsodd)
c:/program files (x86)/atmel/studio/7.0/toolchain/avr8/avr8-gnu-toolchain/bin/../lib/gcc/avr/5.4.0/../../../../avr/lib/avrxmega6\libm.a(inverse.o)
                              c:/program files (x86)/atmel/studio/7.0/toolchain/avr8/avr8-gnu-toolchain/bin/../lib/gcc/avr/5.4.0/../../../../avr/lib/avrxmega6\libm.a(exp.o) (inverse)
c:/program files (x86)/atmel/studio/7.0/toolchain/avr8/avr8-gnu-toolchain/bin/../lib/gcc/avr/5.4.0/../../../../avr/lib/avrxmega6\libm.a(ldexp.o)
                              c:/program files (x86)/atmel/studio/7.0/toolchain/avr8/avr8-gnu-toolchain/bin/../lib/gcc/avr/5.4.0/../../../../avr/lib/avrxmega6\libm.a(exp.o) (ldexp)
c:/program files (x86)/atmel/studio/7.0/toolchain/avr8/avr8-gnu-toolchain/bin/../lib/gcc/avr/5.4.0/../../../../avr/lib/avrxmega6\libm.a(log.o)
                              c:/program files (x86)/atmel/studio/7.0/toolchain/avr8/avr8-gnu-toolchain/bin/../lib/gcc/avr/5.4.0/../../../../avr/lib/avrxmega6\libm.a(pow.o) (log)
c:/program files (x86)/atmel/studio/7.0/toolchain/avr8/avr8-gnu-toolchain/bin/../lib/gcc/avr/5.4.0/../../../../avr/lib/avrxmega6\libm.a(modf.o)
                              c:/program files (x86)/atmel/studio/7.0/toolchain/avr8/avr8-gnu-toolchain/bin/../lib/gcc/avr/5.4.0/../../../../avr/lib/avrxmega6\libm.a(exp.o) (modf)
c:/program files (x86)/atmel/studio/7.0/toolchain/avr8/avr8-gnu-toolchain/bin/../lib/gcc/avr/5.4.0/avrxmega6\libgcc.a(_mulsi3.o)
                              src/twi.o (__mulsi3)
c:/program files (x86)/atmel/studio/7.0/toolchain/avr8/avr8-gnu-toolchain/bin/../lib/gcc/avr/5.4.0/avrxmega6\libgcc.a(_udivmodhi4.o)
                              src/ASF/common/services/calendar/calendar.o (__udivmodhi4)
c:/program files (x86)/atmel/studio/7.0/toolchain/avr8/avr8-gnu-toolchain/bin/../lib/gcc/avr/5.4.0/avrxmega6\libgcc.a(_divmodhi4.o)
                              src/twi.o (__divmodhi4)
c:/program files (x86)/atmel/studio/7.0/toolchain/avr8/avr8-gnu-toolchain/bin/../lib/gcc/avr/5.4.0/avrxmega6\libgcc.a(_udivmodsi4.o)
                              src/ASF/xmega/drivers/usart/usart.o (__udivmodsi4)
c:/program files (x86)/atmel/studio/7.0/toolchain/avr8/avr8-gnu-toolchain/bin/../lib/gcc/avr/5.4.0/avrxmega6\libgcc.a(_divmodsi4.o)
                              src/twi.o (__divmodsi4)
c:/program files (x86)/atmel/studio/7.0/toolchain/avr8/avr8-gnu-toolchain/bin/../lib/gcc/avr/5.4.0/avrxmega6\libgcc.a(_negsi2.o)
                              c:/program files (x86)/atmel/studio/7.0/toolchain/avr8/avr8-gnu-toolchain/bin/../lib/gcc/avr/5.4.0/avrxmega6\libgcc.a(_divmodsi4.o) (__negsi2)
c:/program files (x86)/atmel/studio/7.0/toolchain/avr8/avr8-gnu-toolchain/bin/../lib/gcc/avr/5.4.0/avrxmega6\libgcc.a(_exit.o)
                              C:/Program Files (x86)/Atmel/Studio/7.0/Packs/Atmel/XMEGAA_DFP/1.1.68/gcc/dev/atxmega256a3bu/avrxmega6/crtatxmega256a3bu.o (exit)
c:/program files (x86)/atmel/studio/7.0/toolchain/avr8/avr8-gnu-toolchain/bin/../lib/gcc/avr/5.4.0/avrxmega6\libgcc.a(_tablejump2.o)
                              src/serial.o (__tablejump2__)
c:/program files (x86)/atmel/studio/7.0/toolchain/avr8/avr8-gnu-toolchain/bin/../lib/gcc/avr/5.4.0/avrxmega6\libgcc.a(_copy_data.o)
                              src/serial.o (__do_copy_data)
c:/program files (x86)/atmel/studio/7.0/toolchain/avr8/avr8-gnu-toolchain/bin/../lib/gcc/avr/5.4.0/avrxmega6\libgcc.a(_clear_bss.o)
                              src/usb.o (__do_clear_bss)
c:/program files (x86)/atmel/studio/7.0/toolchain/avr8/avr8-gnu-toolchain/bin/../lib/gcc/avr/5.4.0/avrxmega6\libgcc.a(_mulhisi3.o)
                              src/twi.o (__mulhisi3)
c:/program files (x86)/atmel/studio/7.0/toolchain/avr8/avr8-gnu-toolchain/bin/../lib/gcc/avr/5.4.0/avrxmega6\libgcc.a(_umulhisi3.o)
                              src/ASF/common/services/calendar/calendar.o (__umulhisi3)
c:/program files (x86)/atmel/studio/7.0/toolchain/avr8/avr8-gnu-toolchain/bin/../lib/gcc/avr/5.4.0/avrxmega6\libgcc.a(_usmulhisi3.o)
                              src/twi.o (__usmulhisi3)
c:/program files (x86)/atmel/studio/7.0/toolchain/avr8/avr8-gnu-toolchain/bin/../lib/gcc/avr/5.4.0/avrxmega6\libgcc.a(_muluhisi3.o)
                              src/ASF/common/services/calendar/calendar.o (__muluhisi3)
c:/program files (x86)/atmel/studio/7.0/toolchain/avr8/avr8-gnu-toolchain/bin/../lib/gcc/avr/5.4.0/avrxmega6\libgcc.a(_muldi3.o)
                              src/serial.o (__muldi3)
c:/program files (x86)/atmel/studio/7.0/toolchain/avr8/avr8-gnu-toolchain/bin/../lib/gcc/avr/5.4.0/avrxmega6\libgcc.a(_muldi3_6.o)
                              c:/program files (x86)/atmel/studio/7.0/toolchain/avr8/avr8-gnu-toolchain/bin/../lib/gcc/avr/5.4.0/avrxmega6\libgcc.a(_muldi3.o) (__muldi3_6)
c:/program files (x86)/atmel/studio/7.0/toolchain/avr8/avr8-gnu-toolchain/bin/../lib/gcc/avr/5.4.0/avrxmega6\libgcc.a(_mulsidi3.o)
                              src/twi.o (__mulsidi3)
c:/program files (x86)/atmel/studio/7.0/toolchain/avr8/avr8-gnu-toolchain/bin/../lib/gcc/avr/5.4.0/avrxmega6\libgcc.a(_umulsidi3.o)
                              src/main.o (__umulsidi3)
c:/program files (x86)/atmel/studio/7.0/toolchain/avr8/avr8-gnu-toolchain/bin/../lib/gcc/avr/5.4.0/avrxmega6\libgcc.a(_divdi3.o)
                              src/twi.o (__divdi3)
c:/program files (x86)/atmel/studio/7.0/toolchain/avr8/avr8-gnu-toolchain/bin/../lib/gcc/avr/5.4.0/avrxmega6\libgcc.a(_udivdi3.o)
                              src/serial.o (__umoddi3)
c:/program files (x86)/atmel/studio/7.0/toolchain/avr8/avr8-gnu-toolchain/bin/../lib/gcc/avr/5.4.0/avrxmega6\libgcc.a(_udivmod64.o)
                              c:/program files (x86)/atmel/studio/7.0/toolchain/avr8/avr8-gnu-toolchain/bin/../lib/gcc/avr/5.4.0/avrxmega6\libgcc.a(_divdi3.o) (__udivmod64)
c:/program files (x86)/atmel/studio/7.0/toolchain/avr8/avr8-gnu-toolchain/bin/../lib/gcc/avr/5.4.0/avrxmega6\libgcc.a(_negdi2.o)
                              c:/program files (x86)/atmel/studio/7.0/toolchain/avr8/avr8-gnu-toolchain/bin/../lib/gcc/avr/5.4.0/avrxmega6\libgcc.a(_divdi3.o) (__negdi2)
c:/program files (x86)/atmel/studio/7.0/toolchain/avr8/avr8-gnu-toolchain/bin/../lib/gcc/avr/5.4.0/avrxmega6\libgcc.a(_prologue.o)
                              c:/program files (x86)/atmel/studio/7.0/toolchain/avr8/avr8-gnu-toolchain/bin/../lib/gcc/avr/5.4.0/avrxmega6\libgcc.a(_divdi3.o) (__prologue_saves__)
c:/program files (x86)/atmel/studio/7.0/toolchain/avr8/avr8-gnu-toolchain/bin/../lib/gcc/avr/5.4.0/avrxmega6\libgcc.a(_epilogue.o)
                              c:/program files (x86)/atmel/studio/7.0/toolchain/avr8/avr8-gnu-toolchain/bin/../lib/gcc/avr/5.4.0/avrxmega6\libgcc.a(_divdi3.o) (__epilogue_restores__)
c:/program files (x86)/atmel/studio/7.0/toolchain/avr8/avr8-gnu-toolchain/bin/../lib/gcc/avr/5.4.0/avrxmega6\libgcc.a(_ashldi3.o)
                              src/twi.o (__ashldi3)
c:/program files (x86)/atmel/studio/7.0/toolchain/avr8/avr8-gnu-toolchain/bin/../lib/gcc/avr/5.4.0/avrxmega6\libgcc.a(_ashrdi3.o)
                              src/twi.o (__ashrdi3)
c:/program files (x86)/atmel/studio/7.0/toolchain/avr8/avr8-gnu-toolchain/bin/../lib/gcc/avr/5.4.0/avrxmega6\libgcc.a(_adddi3.o)
                              src/serial.o (__adddi3)
c:/program files (x86)/atmel/studio/7.0/toolchain/avr8/avr8-gnu-toolchain/bin/../lib/gcc/avr/5.4.0/avrxmega6\libgcc.a(_adddi3_s8.o)
                              src/main.o (__adddi3_s8)
c:/program files (x86)/atmel/studio/7.0/toolchain/avr8/avr8-gnu-toolchain/bin/../lib/gcc/avr/5.4.0/avrxmega6\libgcc.a(_subdi3.o)
                              src/twi.o (__subdi3)
c:/program files (x86)/atmel/studio/7.0/toolchain/avr8/avr8-gnu-toolchain/bin/../lib/gcc/avr/5.4.0/avrxmega6\libgcc.a(_cmpdi2_s8.o)
                              src/serial.o (__cmpdi2_s8)
c:/program files (x86)/atmel/studio/7.0/toolchain/avr8/avr8-gnu-toolchain/bin/../lib/gcc/avr/5.4.0/../../../../avr/lib/avrxmega6\libc.a(strtol.o)
                              src/serial.o (strtol)
c:/program files (x86)/atmel/studio/7.0/toolchain/avr8/avr8-gnu-toolchain/bin/../lib/gcc/avr/5.4.0/../../../../avr/lib/avrxmega6\libc.a(atof.o)
                              src/main.o (atof)
c:/program files (x86)/atmel/studio/7.0/toolchain/avr8/avr8-gnu-toolchain/bin/../lib/gcc/avr/5.4.0/../../../../avr/lib/avrxmega6\libc.a(atoi.o)
                              src/main.o (atoi)
c:/program files (x86)/atmel/studio/7.0/toolchain/avr8/avr8-gnu-toolchain/bin/../lib/gcc/avr/5.4.0/../../../../avr/lib/avrxmega6\libc.a(atol.o)
                              src/main.o (atol)
c:/program files (x86)/atmel/studio/7.0/toolchain/avr8/avr8-gnu-toolchain/bin/../lib/gcc/avr/5.4.0/../../../../avr/lib/avrxmega6\libc.a(ftoa_engine.o)
                              c:/program files (x86)/atmel/studio/7.0/toolchain/avr8/avr8-gnu-toolchain/bin/../lib/gcc/avr/5.4.0/../../../../avr/lib/avrxmega6\libprintf_flt.a(vfprintf_flt.o) (__ftoa_engine)
c:/program files (x86)/atmel/studio/7.0/toolchain/avr8/avr8-gnu-toolchain/bin/../lib/gcc/avr/5.4.0/../../../../avr/lib/avrxmega6\libc.a(isspace.o)
                              src/main.o (isspace)
c:/program files (x86)/atmel/studio/7.0/toolchain/avr8/avr8-gnu-toolchain/bin/../lib/gcc/avr/5.4.0/../../../../avr/lib/avrxmega6\libc.a(strcpy_P.o)
                              src/twi.o (strcpy_P)
c:/program files (x86)/atmel/studio/7.0/toolchain/avr8/avr8-gnu-toolchain/bin/../lib/gcc/avr/5.4.0/../../../../avr/lib/avrxmega6\libc.a(strncasecmp_P.o)
                              src/interpreter.o (strncasecmp_P)
c:/program files (x86)/atmel/studio/7.0/toolchain/avr8/avr8-gnu-toolchain/bin/../lib/gcc/avr/5.4.0/../../../../avr/lib/avrxmega6\libc.a(strncmp_P.o)
                              src/interpreter.o (strncmp_P)
c:/program files (x86)/atmel/studio/7.0/toolchain/avr8/avr8-gnu-toolchain/bin/../lib/gcc/avr/5.4.0/../../../../avr/lib/avrxmega6\libc.a(strnlen_P.o)
                              c:/program files (x86)/atmel/studio/7.0/toolchain/avr8/avr8-gnu-toolchain/bin/../lib/gcc/avr/5.4.0/../../../../avr/lib/avrxmega6\libprintf_flt.a(vfprintf_flt.o) (strnlen_P)
c:/program files (x86)/atmel/studio/7.0/toolchain/avr8/avr8-gnu-toolchain/bin/../lib/gcc/avr/5.4.0/../../../../avr/lib/avrxmega6\libc.a(strstr_P.o)
                              src/serial.o (strstr_P)
c:/program files (x86)/atmel/studio/7.0/toolchain/avr8/avr8-gnu-toolchain/bin/../lib/gcc/avr/5.4.0/../../../../avr/lib/avrxmega6\libc.a(memchr.o)
                              src/interpreter.o (memchr)
c:/program files (x86)/atmel/studio/7.0/toolchain/avr8/avr8-gnu-toolchain/bin/../lib/gcc/avr/5.4.0/../../../../avr/lib/avrxmega6\libc.a(memcpy.o)
                              src/interpreter.o (memcpy)
c:/program files (x86)/atmel/studio/7.0/toolchain/avr8/avr8-gnu-toolchain/bin/../lib/gcc/avr/5.4.0/../../../../avr/lib/avrxmega6\libc.a(strchr.o)
                              src/serial.o (strchr)
c:/program files (x86)/atmel/studio/7.0/toolchain/avr8/avr8-gnu-toolchain/bin/../lib/gcc/avr/5.4.0/../../../../avr/lib/avrxmega6\libc.a(strnlen.o)
                              c:/program files (x86)/atmel/studio/7.0/toolchain/avr8/avr8-gnu-toolchain/bin/../lib/gcc/avr/5.4.0/../../../../avr/lib/avrxmega6\libprintf_flt.a(vfprintf_flt.o) (strnlen)
c:/program files (x86)/atmel/studio/7.0/toolchain/avr8/avr8-gnu-toolchain/bin/../lib/gcc/avr/5.4.0/../../../../avr/lib/avrxmega6\libc.a(mulsi10.o)
                              c:/program files (x86)/atmel/studio/7.0/toolchain/avr8/avr8-gnu-toolchain/bin/../lib/gcc/avr/5.4.0/../../../../avr/lib/avrxmega6\libc.a(atol.o) (__mulsi_const_10)
c:/program files (x86)/atmel/studio/7.0/toolchain/avr8/avr8-gnu-toolchain/bin/../lib/gcc/avr/5.4.0/../../../../avr/lib/avrxmega6\libc.a(mul10.o)
                              c:/program files (x86)/atmel/studio/7.0/toolchain/avr8/avr8-gnu-toolchain/bin/../lib/gcc/avr/5.4.0/../../../../avr/lib/avrxmega6\libc.a(atoi.o) (__mulhi_const_10)
c:/program files (x86)/atmel/studio/7.0/toolchain/avr8/avr8-gnu-toolchain/bin/../lib/gcc/avr/5.4.0/../../../../avr/lib/avrxmega6\libc.a(fdevopen.o)
                              src/ASF/common/utils/stdio/stdio_usb/stdio_usb.o (fdevopen)
c:/program files (x86)/atmel/studio/7.0/toolchain/avr8/avr8-gnu-toolchain/bin/../lib/gcc/avr/5.4.0/../../../../avr/lib/avrxmega6\libc.a(fputc.o)
                              c:/program files (x86)/atmel/studio/7.0/toolchain/avr8/avr8-gnu-toolchain/bin/../lib/gcc/avr/5.4.0/../../../../avr/lib/avrxmega6\libprintf_flt.a(vfprintf_flt.o) (fputc)
c:/program files (x86)/atmel/studio/7.0/toolchain/avr8/avr8-gnu-toolchain/bin/../lib/gcc/avr/5.4.0/../../../../avr/lib/avrxmega6\libc.a(iob.o)
                              c:/program files (x86)/atmel/studio/7.0/toolchain/avr8/avr8-gnu-toolchain/bin/../lib/gcc/avr/5.4.0/../../../../avr/lib/avrxmega6\libc.a(fdevopen.o) (__iob)
c:/program files (x86)/atmel/studio/7.0/toolchain/avr8/avr8-gnu-toolchain/bin/../lib/gcc/avr/5.4.0/../../../../avr/lib/avrxmega6\libc.a(snprintf_p.o)
                              src/serial.o (snprintf_P)
c:/program files (x86)/atmel/studio/7.0/toolchain/avr8/avr8-gnu-toolchain/bin/../lib/gcc/avr/5.4.0/../../../../avr/lib/avrxmega6\libc.a(sprintf_p.o)
                              src/twi.o (sprintf_P)
c:/program files (x86)/atmel/studio/7.0/toolchain/avr8/avr8-gnu-toolchain/bin/../lib/gcc/avr/5.4.0/../../../../avr/lib/avrxmega6\libc.a(ultoa_invert.o)
                              c:/program files (x86)/atmel/studio/7.0/toolchain/avr8/avr8-gnu-toolchain/bin/../lib/gcc/avr/5.4.0/../../../../avr/lib/avrxmega6\libprintf_flt.a(vfprintf_flt.o) (__ultoa_invert)
c:/program files (x86)/atmel/studio/7.0/toolchain/avr8/avr8-gnu-toolchain/bin/../lib/gcc/avr/5.4.0/../../../../avr/lib/avrxmega6\libc.a(calloc.o)
                              c:/program files (x86)/atmel/studio/7.0/toolchain/avr8/avr8-gnu-toolchain/bin/../lib/gcc/avr/5.4.0/../../../../avr/lib/avrxmega6\libc.a(fdevopen.o) (calloc)
c:/program files (x86)/atmel/studio/7.0/toolchain/avr8/avr8-gnu-toolchain/bin/../lib/gcc/avr/5.4.0/../../../../avr/lib/avrxmega6\libc.a(errno.o)
                              c:/program files (x86)/atmel/studio/7.0/toolchain/avr8/avr8-gnu-toolchain/bin/../lib/gcc/avr/5.4.0/../../../../avr/lib/avrxmega6\libc.a(strtol.o) (errno)
c:/program files (x86)/atmel/studio/7.0/toolchain/avr8/avr8-gnu-toolchain/bin/../lib/gcc/avr/5.4.0/../../../../avr/lib/avrxmega6\libc.a(malloc.o)
                              c:/program files (x86)/atmel/studio/7.0/toolchain/avr8/avr8-gnu-toolchain/bin/../lib/gcc/avr/5.4.0/../../../../avr/lib/avrxmega6\libc.a(calloc.o) (malloc)
c:/program files (x86)/atmel/studio/7.0/toolchain/avr8/avr8-gnu-toolchain/bin/../lib/gcc/avr/5.4.0/../../../../avr/lib/avrxmega6\libc.a(strtod.o)
                              c:/program files (x86)/atmel/studio/7.0/toolchain/avr8/avr8-gnu-toolchain/bin/../lib/gcc/avr/5.4.0/../../../../avr/lib/avrxmega6\libc.a(atof.o) (strtod)
c:/program files (x86)/atmel/studio/7.0/toolchain/avr8/avr8-gnu-toolchain/bin/../lib/gcc/avr/5.4.0/../../../../avr/lib/avrxmega6\libc.a(cty_isfalse.o)
                              c:/program files (x86)/atmel/studio/7.0/toolchain/avr8/avr8-gnu-toolchain/bin/../lib/gcc/avr/5.4.0/../../../../avr/lib/avrxmega6\libc.a(isspace.o) (__ctype_isfalse)
c:/program files (x86)/atmel/studio/7.0/toolchain/avr8/avr8-gnu-toolchain/bin/../lib/gcc/avr/5.4.0/../../../../avr/lib/avrxmega6\libc.a(memset.o)
                              c:/program files (x86)/atmel/studio/7.0/toolchain/avr8/avr8-gnu-toolchain/bin/../lib/gcc/avr/5.4.0/../../../../avr/lib/avrxmega6\libc.a(calloc.o) (memset)

Allocating common symbols
Common symbol       size              file

errno               0x2               c:/program files (x86)/atmel/studio/7.0/toolchain/avr8/avr8-gnu-toolchain/bin/../lib/gcc/avr/5.4.0/../../../../avr/lib/avrxmega6\libc.a(errno.o)
g_fifo_sched_desc   0x6               src/main.o
rtc_data            0x2               src/ASF/xmega/drivers/rtc32/rtc32.o
adcb_callback       0x2               src/ASF/xmega/drivers/adc/adc.o
ptr_get             0x2               src/ASF/common/utils/stdio/read.o
__brkval            0x2               c:/program files (x86)/atmel/studio/7.0/toolchain/avr8/avr8-gnu-toolchain/bin/../lib/gcc/avr/5.4.0/../../../../avr/lib/avrxmega6\libc.a(malloc.o)
ptr_put             0x2               src/ASF/common/utils/stdio/write.o
dma_data            0x8               src/ASF/xmega/drivers/dma/dma.o
udd_g_ctrlreq       0x10              src/ASF/xmega/drivers/usb/usb_device.o
stdio_base          0x2               src/ASF/common/utils/stdio/write.o
sleepmgr_locks      0x6               src/ASF/common/services/sleepmgr/xmega/sleepmgr.o
__flp               0x2               c:/program files (x86)/atmel/studio/7.0/toolchain/avr8/avr8-gnu-toolchain/bin/../lib/gcc/avr/5.4.0/../../../../avr/lib/avrxmega6\libc.a(malloc.o)
g_fifo_sched_buffer
                    0x80              src/main.o
__iob               0x6               c:/program files (x86)/atmel/studio/7.0/toolchain/avr8/avr8-gnu-toolchain/bin/../lib/gcc/avr/5.4.0/../../../../avr/lib/avrxmega6\libc.a(iob.o)
adca_callback       0x2               src/ASF/xmega/drivers/adc/adc.o

Discarded input sections

 .data          0x00000000        0x0 C:/Program Files (x86)/Atmel/Studio/7.0/Packs/Atmel/XMEGAA_DFP/1.1.68/gcc/dev/atxmega256a3bu/avrxmega6/crtatxmega256a3bu.o
 .bss           0x00000000        0x0 C:/Program Files (x86)/Atmel/Studio/7.0/Packs/Atmel/XMEGAA_DFP/1.1.68/gcc/dev/atxmega256a3bu/avrxmega6/crtatxmega256a3bu.o
 .text          0x00000000        0x0 src/ASF/common/services/serial/usart_serial.o
 .data          0x00000000        0x0 src/ASF/common/services/serial/usart_serial.o
 .bss           0x00000000        0x0 src/ASF/common/services/serial/usart_serial.o
 .text.usart_serial_read_packet
                0x00000000       0x36 src/ASF/common/services/serial/usart_serial.o
 .text          0x00000000        0x0 src/ASF/xmega/drivers/usart/usart.o
 .data          0x00000000        0x0 src/ASF/xmega/drivers/usart/usart.o
 .bss           0x00000000        0x0 src/ASF/xmega/drivers/usart/usart.o
 .text.usart_set_bsel_bscale_value
                0x00000000       0x10 src/ASF/xmega/drivers/usart/usart.o
 .text.usart_set_baudrate_precalculated
                0x00000000       0xe8 src/ASF/xmega/drivers/usart/usart.o
 .text.usart_spi_set_baudrate
                0x00000000       0x50 src/ASF/xmega/drivers/usart/usart.o
 .text.usart_init_spi
                0x00000000      0x162 src/ASF/xmega/drivers/usart/usart.o
 .progmem.data.baudctrl_32mhz
                0x00000000       0x10 src/ASF/xmega/drivers/usart/usart.o
 .progmem.data.baudctrl_30mhz
                0x00000000       0x10 src/ASF/xmega/drivers/usart/usart.o
 .progmem.data.baudctrl_2mhz
                0x00000000       0x10 src/ASF/xmega/drivers/usart/usart.o
 .text          0x00000000        0x0 src/serial.o
 .data          0x00000000        0x0 src/serial.o
 .bss           0x00000000        0x0 src/serial.o
 .progmem.data.PM_TWI1_INIT_ONBOARD_SIM808_INFO_05
                0x00000000       0x1a src/serial.o
 .progmem.data.PM_TWI1_INIT_ONBOARD_SIM808_INFO_04
                0x00000000        0xa src/serial.o
 .progmem.data.PM_TWI1_INIT_ONBOARD_SIM808_INFO_03
                0x00000000        0xa src/serial.o
 .progmem.data.PM_SIM808_RDY
                0x00000000        0x4 src/serial.o
 .text          0x00000000        0x0 src/usb.o
 .data          0x00000000        0x0 src/usb.o
 .bss           0x00000000        0x0 src/usb.o
 .text.usb_send_wakeup_event
                0x00000000        0x4 src/usb.o
 .text          0x00000000        0x0 src/ASF/common/drivers/nvm/xmega/xmega_nvm.o
 .data          0x00000000        0x0 src/ASF/common/drivers/nvm/xmega/xmega_nvm.o
 .bss           0x00000000        0x0 src/ASF/common/drivers/nvm/xmega/xmega_nvm.o
 .text.nvm_wait_until_ready
                0x00000000        0xa src/ASF/common/drivers/nvm/xmega/xmega_nvm.o
 .text.nvm_read_char
                0x00000000       0x40 src/ASF/common/drivers/nvm/xmega/xmega_nvm.o
 .text.nvm_write_char
                0x00000000       0x60 src/ASF/common/drivers/nvm/xmega/xmega_nvm.o
 .text.nvm_page_erase
                0x00000000       0x88 src/ASF/common/drivers/nvm/xmega/xmega_nvm.o
 .text.nvm_get_size
                0x00000000       0x38 src/ASF/common/drivers/nvm/xmega/xmega_nvm.o
 .text.nvm_get_page_size
                0x00000000       0x2c src/ASF/common/drivers/nvm/xmega/xmega_nvm.o
 .text.nvm_get_pagenumber
                0x00000000       0x38 src/ASF/common/drivers/nvm/xmega/xmega_nvm.o
 .text.nvm_set_security_bit
                0x00000000       0x2e src/ASF/common/drivers/nvm/xmega/xmega_nvm.o
 .text          0x00000000        0x0 src/ASF/common/services/calendar/calendar.o
 .data          0x00000000        0x0 src/ASF/common/services/calendar/calendar.o
 .bss           0x00000000        0x0 src/ASF/common/services/calendar/calendar.o
 .text.calendar_timestamp_to_date_tz
                0x00000000       0x98 src/ASF/common/services/calendar/calendar.o
 .text.calendar_date_to_timestamp_tz
                0x00000000       0xd2 src/ASF/common/services/calendar/calendar.o
 .text.calendar_time_between_dates
                0x00000000      0x174 src/ASF/common/services/calendar/calendar.o
 .text.calendar_add_second_to_date
                0x00000000       0x9e src/ASF/common/services/calendar/calendar.o
 .text          0x00000000        0x0 src/ASF/common/services/fifo/fifo.o
 .data          0x00000000        0x0 src/ASF/common/services/fifo/fifo.o
 .bss           0x00000000        0x0 src/ASF/common/services/fifo/fifo.o
 .text          0x00000000        0x0 src/ASF/common/services/hugemem/avr8/avr8_hugemem.o
 .data          0x00000000        0x0 src/ASF/common/services/hugemem/avr8/avr8_hugemem.o
 .bss           0x00000000        0x0 src/ASF/common/services/hugemem/avr8/avr8_hugemem.o
 .comment       0x00000000       0x31 src/ASF/common/services/hugemem/avr8/avr8_hugemem.o
 .text          0x00000000        0x0 src/ASF/xmega/drivers/dma/dma.o
 .data          0x00000000        0x0 src/ASF/xmega/drivers/dma/dma.o
 .bss           0x00000000        0x0 src/ASF/xmega/drivers/dma/dma.o
 .text.dma_channel_read_config
                0x00000000       0x60 src/ASF/xmega/drivers/dma/dma.o
 .text          0x00000000        0x0 src/ASF/xmega/drivers/rtc32/rtc32.o
 .data          0x00000000        0x0 src/ASF/xmega/drivers/rtc32/rtc32.o
 .bss           0x00000000        0x0 src/ASF/xmega/drivers/rtc32/rtc32.o
 .text.rtc_set_time
                0x00000000       0x24 src/ASF/xmega/drivers/rtc32/rtc32.o
 .text.rtc_alarm_has_triggered
                0x00000000       0x10 src/ASF/xmega/drivers/rtc32/rtc32.o
 .text.rtc_vbat_system_check
                0x00000000       0x48 src/ASF/xmega/drivers/rtc32/rtc32.o
 .text          0x00000000        0x0 src/dds.o
 .data          0x00000000        0x0 src/dds.o
 .bss           0x00000000        0x0 src/dds.o
 .text          0x00000000        0x0 src/interpreter.o
 .data          0x00000000        0x0 src/interpreter.o
 .bss           0x00000000        0x0 src/interpreter.o
 .text          0x00000000        0x0 src/twi.o
 .data          0x00000000        0x0 src/twi.o
 .bss           0x00000000        0x0 src/twi.o
 .text.isr_10ms_twi1_onboard
                0x00000000        0x2 src/twi.o
 .progmem.data.PM_FORMAT_6F1
                0x00000000        0x6 src/twi.o
 .progmem.data.PM_FORMAT_03F10
                0x00000000        0x8 src/twi.o
 .text          0x00000000        0x0 src/ASF/common/boards/user_board/init.o
 .data          0x00000000        0x0 src/ASF/common/boards/user_board/init.o
 .bss           0x00000000        0x0 src/ASF/common/boards/user_board/init.o
 .text          0x00000000        0x0 src/ASF/common/services/gfx_mono/gfx_mono_framebuffer.o
 .data          0x00000000        0x0 src/ASF/common/services/gfx_mono/gfx_mono_framebuffer.o
 .bss           0x00000000        0x0 src/ASF/common/services/gfx_mono/gfx_mono_framebuffer.o
 .text.gfx_mono_set_framebuffer
                0x00000000        0xa src/ASF/common/services/gfx_mono/gfx_mono_framebuffer.o
 .text.gfx_mono_framebuffer_put_page
                0x00000000       0x2a src/ASF/common/services/gfx_mono/gfx_mono_framebuffer.o
 .text.gfx_mono_framebuffer_get_page
                0x00000000       0x2a src/ASF/common/services/gfx_mono/gfx_mono_framebuffer.o
 .text.gfx_mono_framebuffer_put_byte
                0x00000000       0x1c src/ASF/common/services/gfx_mono/gfx_mono_framebuffer.o
 .text.gfx_mono_framebuffer_get_byte
                0x00000000       0x1c src/ASF/common/services/gfx_mono/gfx_mono_framebuffer.o
 .text.gfx_mono_framebuffer_draw_pixel
                0x00000000       0x74 src/ASF/common/services/gfx_mono/gfx_mono_framebuffer.o
 .text.gfx_mono_framebuffer_get_pixel
                0x00000000       0x44 src/ASF/common/services/gfx_mono/gfx_mono_framebuffer.o
 .text.gfx_mono_framebuffer_mask_byte
                0x00000000       0x3c src/ASF/common/services/gfx_mono/gfx_mono_framebuffer.o
 .bss.fbpointer
                0x00000000        0x2 src/ASF/common/services/gfx_mono/gfx_mono_framebuffer.o
 .comment       0x00000000       0x31 src/ASF/common/services/gfx_mono/gfx_mono_framebuffer.o
 .text          0x00000000        0x0 src/ASF/common/services/gfx_mono/gfx_mono_generic.o
 .data          0x00000000        0x0 src/ASF/common/services/gfx_mono/gfx_mono_generic.o
 .bss           0x00000000        0x0 src/ASF/common/services/gfx_mono/gfx_mono_generic.o
 .text.gfx_mono_generic_draw_horizontal_line
                0x00000000       0xca src/ASF/common/services/gfx_mono/gfx_mono_generic.o
 .text.gfx_mono_generic_draw_vertical_line
                0x00000000       0xb4 src/ASF/common/services/gfx_mono/gfx_mono_generic.o
 .text.gfx_mono_generic_draw_line
                0x00000000       0xd0 src/ASF/common/services/gfx_mono/gfx_mono_generic.o
 .text.gfx_mono_generic_draw_rect
                0x00000000       0x4e src/ASF/common/services/gfx_mono/gfx_mono_generic.o
 .text.gfx_mono_generic_draw_filled_rect
                0x00000000       0x36 src/ASF/common/services/gfx_mono/gfx_mono_generic.o
 .text.gfx_mono_generic_draw_circle
                0x00000000      0x16e src/ASF/common/services/gfx_mono/gfx_mono_generic.o
 .text.gfx_mono_generic_draw_filled_circle
                0x00000000      0x14c src/ASF/common/services/gfx_mono/gfx_mono_generic.o
 .text.gfx_mono_generic_put_bitmap
                0x00000000       0xb4 src/ASF/common/services/gfx_mono/gfx_mono_generic.o
 .comment       0x00000000       0x31 src/ASF/common/services/gfx_mono/gfx_mono_generic.o
 .text          0x00000000        0x0 src/ASF/common/services/gfx_mono/gfx_mono_null.o
 .data          0x00000000        0x0 src/ASF/common/services/gfx_mono/gfx_mono_null.o
 .bss           0x00000000        0x0 src/ASF/common/services/gfx_mono/gfx_mono_null.o
 .text.gfx_mono_null_init
                0x00000000        0x8 src/ASF/common/services/gfx_mono/gfx_mono_null.o
 .bss.framebuffer
                0x00000000      0x200 src/ASF/common/services/gfx_mono/gfx_mono_null.o
 .comment       0x00000000       0x31 src/ASF/common/services/gfx_mono/gfx_mono_null.o
 .text          0x00000000        0x0 src/ASF/common/services/gfx_mono/gfx_mono_text.o
 .data          0x00000000        0x0 src/ASF/common/services/gfx_mono/gfx_mono_text.o
 .bss           0x00000000        0x0 src/ASF/common/services/gfx_mono/gfx_mono_text.o
 .text.gfx_mono_draw_char
                0x00000000       0xc2 src/ASF/common/services/gfx_mono/gfx_mono_text.o
 .text.gfx_mono_draw_string
                0x00000000       0x5a src/ASF/common/services/gfx_mono/gfx_mono_text.o
 .text.gfx_mono_draw_progmem_string
                0x00000000       0x5e src/ASF/common/services/gfx_mono/gfx_mono_text.o
 .text.gfx_mono_get_string_bounding_box
                0x00000000       0x3e src/ASF/common/services/gfx_mono/gfx_mono_text.o
 .text.gfx_mono_get_progmem_string_bounding_box
                0x00000000       0x54 src/ASF/common/services/gfx_mono/gfx_mono_text.o
 .comment       0x00000000       0x31 src/ASF/common/services/gfx_mono/gfx_mono_text.o
 .text          0x00000000        0x0 src/ASF/common/services/gfx_mono/sysfont.o
 .data          0x00000000        0x0 src/ASF/common/services/gfx_mono/sysfont.o
 .bss           0x00000000        0x0 src/ASF/common/services/gfx_mono/sysfont.o
 .data.sysfont  0x00000000        0x7 src/ASF/common/services/gfx_mono/sysfont.o
 .progmem.data.sysfont_glyphs
                0x00000000      0x292 src/ASF/common/services/gfx_mono/sysfont.o
 .comment       0x00000000       0x31 src/ASF/common/services/gfx_mono/sysfont.o
 .text          0x00000000        0x0 src/ASF/common/services/ioport/xmega/ioport_compat.o
 .data          0x00000000        0x0 src/ASF/common/services/ioport/xmega/ioport_compat.o
 .bss           0x00000000        0x0 src/ASF/common/services/ioport/xmega/ioport_compat.o
 .comment       0x00000000       0x31 src/ASF/common/services/ioport/xmega/ioport_compat.o
 .text          0x00000000        0x0 src/ASF/xmega/drivers/adc/adc.o
 .data          0x00000000        0x0 src/ASF/xmega/drivers/adc/adc.o
 .bss           0x00000000        0x0 src/ASF/xmega/drivers/adc/adc.o
 .text.adc_is_enabled
                0x00000000       0x24 src/ASF/xmega/drivers/adc/adc.o
 .text          0x00000000        0x0 src/ASF/xmega/drivers/adc/xmega_aau/adc_aau.o
 .data          0x00000000        0x0 src/ASF/xmega/drivers/adc/xmega_aau/adc_aau.o
 .bss           0x00000000        0x0 src/ASF/xmega/drivers/adc/xmega_aau/adc_aau.o
 .text          0x00000000        0x0 src/ASF/xmega/drivers/dac/dac.o
 .data          0x00000000        0x0 src/ASF/xmega/drivers/dac/dac.o
 .bss           0x00000000        0x0 src/ASF/xmega/drivers/dac/dac.o
 .text.dac_is_enabled
                0x00000000       0x14 src/ASF/xmega/drivers/dac/dac.o
 .text          0x00000000        0x0 src/ASF/xmega/drivers/tc/tc.o
 .data          0x00000000        0x0 src/ASF/xmega/drivers/tc/tc.o
 .bss           0x00000000        0x0 src/ASF/xmega/drivers/tc/tc.o
 .text.tc_disable
                0x00000000       0xae src/ASF/xmega/drivers/tc/tc.o
 .text.tc_set_error_interrupt_callback
                0x00000000       0x7c src/ASF/xmega/drivers/tc/tc.o
 .text.tc_set_cca_interrupt_callback
                0x00000000       0x7c src/ASF/xmega/drivers/tc/tc.o
 .text.tc_set_ccb_interrupt_callback
                0x00000000       0x7c src/ASF/xmega/drivers/tc/tc.o
 .text.tc_set_ccc_interrupt_callback
                0x00000000       0x46 src/ASF/xmega/drivers/tc/tc.o
 .text.tc_set_ccd_interrupt_callback
                0x00000000       0x46 src/ASF/xmega/drivers/tc/tc.o
 .text          0x00000000        0x0 src/ASF/xmega/drivers/twi/twim.o
 .data          0x00000000        0x0 src/ASF/xmega/drivers/twi/twim.o
 .bss           0x00000000        0x0 src/ASF/xmega/drivers/twi/twim.o
 .text          0x00000000        0x0 src/ASF/xmega/drivers/twi/twis.o
 .data          0x00000000        0x0 src/ASF/xmega/drivers/twi/twis.o
 .bss           0x00000000        0x0 src/ASF/xmega/drivers/twi/twis.o
 .text.TWI_SlaveInitializeDriver
                0x00000000       0x16 src/ASF/xmega/drivers/twi/twis.o
 .text.TWI_SlaveInitializeModule
                0x00000000       0x16 src/ASF/xmega/drivers/twi/twis.o
 .text.TWI_SlaveAddressMatchHandler
                0x00000000       0x3e src/ASF/xmega/drivers/twi/twis.o
 .text.TWI_SlaveStopHandler
                0x00000000       0x2a src/ASF/xmega/drivers/twi/twis.o
 .text.TWI_SlaveReadHandler
                0x00000000       0x60 src/ASF/xmega/drivers/twi/twis.o
 .text.TWI_SlaveWriteHandler
                0x00000000       0x5a src/ASF/xmega/drivers/twi/twis.o
 .text.TWI_SlaveDataHandler
                0x00000000       0x12 src/ASF/xmega/drivers/twi/twis.o
 .text.TWI_SlaveInterruptHandler
                0x00000000       0x48 src/ASF/xmega/drivers/twi/twis.o
 .text.TWI_SlaveTransactionFinished
                0x00000000        0x8 src/ASF/xmega/drivers/twi/twis.o
 .comment       0x00000000       0x31 src/ASF/xmega/drivers/twi/twis.o
 .text          0x00000000        0x0 src/ASF/xmega/drivers/usb/usb_device.o
 .data          0x00000000        0x0 src/ASF/xmega/drivers/usb/usb_device.o
 .bss           0x00000000        0x0 src/ASF/xmega/drivers/usb/usb_device.o
 .text.udd_include_vbus_monitoring
                0x00000000        0x4 src/ASF/xmega/drivers/usb/usb_device.o
 .text.udd_detach
                0x00000000        0xc src/ASF/xmega/drivers/usb/usb_device.o
 .text.udd_send_remotewakeup
                0x00000000       0x24 src/ASF/xmega/drivers/usb/usb_device.o
 .text.udd_ep_wait_stall_clear
                0x00000000       0x4c src/ASF/xmega/drivers/usb/usb_device.o
 .text.udd_ep_is_valid
                0x00000000       0x10 src/ASF/xmega/drivers/usb/usb_device.o
 .text          0x00000000        0x0 src/ASF/xmega/services/pwm/pwm.o
 .data          0x00000000        0x0 src/ASF/xmega/services/pwm/pwm.o
 .bss           0x00000000        0x0 src/ASF/xmega/services/pwm/pwm.o
 .text          0x00000000        0x0 src/main.o
 .data          0x00000000        0x0 src/main.o
 .bss           0x00000000        0x0 src/main.o
 .text.halt     0x00000000        0x8 src/main.o
 .text.sched_doSleep
                0x00000000        0x4 src/main.o
 .bss.g_twi1_gsm_version
                0x00000000        0x1 src/main.o
 .bss.g_twi1_gsm_valid
                0x00000000        0x1 src/main.o
 .text          0x00000000        0x0 src/ASF/common/services/clock/xmega/sysclk.o
 .data          0x00000000        0x0 src/ASF/common/services/clock/xmega/sysclk.o
 .bss           0x00000000        0x0 src/ASF/common/services/clock/xmega/sysclk.o
 .text          0x00000000        0x0 src/ASF/common/services/sleepmgr/xmega/sleepmgr.o
 .data          0x00000000        0x0 src/ASF/common/services/sleepmgr/xmega/sleepmgr.o
 .bss           0x00000000        0x0 src/ASF/common/services/sleepmgr/xmega/sleepmgr.o
 .text          0x00000000        0x0 src/ASF/common/services/usb/class/cdc/device/udi_cdc.o
 .data          0x00000000        0x0 src/ASF/common/services/usb/class/cdc/device/udi_cdc.o
 .bss           0x00000000        0x0 src/ASF/common/services/usb/class/cdc/device/udi_cdc.o
 .text.udi_cdc_ctrl_state_notify.isra.3
                0x00000000       0x4e src/ASF/common/services/usb/class/cdc/device/udi_cdc.o
 .text.udi_cdc_serial_state_msg_sent
                0x00000000       0x2a src/ASF/common/services/usb/class/cdc/device/udi_cdc.o
 .text.udi_cdc_ctrl_state_change.isra.5
                0x00000000       0x3e src/ASF/common/services/usb/class/cdc/device/udi_cdc.o
 .text.udi_cdc_ctrl_signal_dcd
                0x00000000        0x8 src/ASF/common/services/usb/class/cdc/device/udi_cdc.o
 .text.udi_cdc_ctrl_signal_dsr
                0x00000000        0x8 src/ASF/common/services/usb/class/cdc/device/udi_cdc.o
 .text.udi_cdc_signal_framing_error
                0x00000000        0xa src/ASF/common/services/usb/class/cdc/device/udi_cdc.o
 .text.udi_cdc_signal_parity_error
                0x00000000        0xa src/ASF/common/services/usb/class/cdc/device/udi_cdc.o
 .text.udi_cdc_signal_overrun
                0x00000000        0xa src/ASF/common/services/usb/class/cdc/device/udi_cdc.o
 .text.udi_cdc_multi_ctrl_signal_dcd
                0x00000000        0xa src/ASF/common/services/usb/class/cdc/device/udi_cdc.o
 .text.udi_cdc_multi_ctrl_signal_dsr
                0x00000000        0xa src/ASF/common/services/usb/class/cdc/device/udi_cdc.o
 .text.udi_cdc_multi_signal_framing_error
                0x00000000        0xa src/ASF/common/services/usb/class/cdc/device/udi_cdc.o
 .text.udi_cdc_multi_signal_parity_error
                0x00000000        0xa src/ASF/common/services/usb/class/cdc/device/udi_cdc.o
 .text.udi_cdc_multi_signal_overrun
                0x00000000        0xa src/ASF/common/services/usb/class/cdc/device/udi_cdc.o
 .text.udi_cdc_is_rx_ready
                0x00000000        0x6 src/ASF/common/services/usb/class/cdc/device/udi_cdc.o
 .text.udi_cdc_multi_read_buf
                0x00000000       0xbc src/ASF/common/services/usb/class/cdc/device/udi_cdc.o
 .text.udi_cdc_read_buf
                0x00000000        0xa src/ASF/common/services/usb/class/cdc/device/udi_cdc.o
 .text.udi_cdc_get_free_tx_buffer
                0x00000000        0x6 src/ASF/common/services/usb/class/cdc/device/udi_cdc.o
 .text.udi_cdc_multi_write_buf
                0x00000000       0xcc src/ASF/common/services/usb/class/cdc/device/udi_cdc.o
 .text.udi_cdc_write_buf
                0x00000000        0xa src/ASF/common/services/usb/class/cdc/device/udi_cdc.o
 .bss.udi_cdc_serial_state_msg_ongoing
                0x00000000        0x1 src/ASF/common/services/usb/class/cdc/device/udi_cdc.o
 .text          0x00000000        0x0 src/ASF/common/services/usb/class/cdc/device/udi_cdc_desc.o
 .data          0x00000000        0x0 src/ASF/common/services/usb/class/cdc/device/udi_cdc_desc.o
 .bss           0x00000000        0x0 src/ASF/common/services/usb/class/cdc/device/udi_cdc_desc.o
 .text          0x00000000        0x0 src/ASF/common/services/usb/udc/udc.o
 .data          0x00000000        0x0 src/ASF/common/services/usb/udc/udc.o
 .bss           0x00000000        0x0 src/ASF/common/services/usb/udc/udc.o
 .text.udc_get_interface_desc
                0x00000000        0xa src/ASF/common/services/usb/udc/udc.o
 .text          0x00000000        0x0 src/ASF/common/utils/stdio/read.o
 .data          0x00000000        0x0 src/ASF/common/utils/stdio/read.o
 .bss           0x00000000        0x0 src/ASF/common/utils/stdio/read.o
 .text          0x00000000        0x0 src/ASF/common/utils/stdio/stdio_usb/stdio_usb.o
 .data          0x00000000        0x0 src/ASF/common/utils/stdio/stdio_usb/stdio_usb.o
 .bss           0x00000000        0x0 src/ASF/common/utils/stdio/stdio_usb/stdio_usb.o
 .text          0x00000000        0x0 src/ASF/common/utils/stdio/write.o
 .data          0x00000000        0x0 src/ASF/common/utils/stdio/write.o
 .bss           0x00000000        0x0 src/ASF/common/utils/stdio/write.o
 .text          0x00000000        0x0 src/ASF/xmega/drivers/nvm/nvm.o
 .data          0x00000000        0x0 src/ASF/xmega/drivers/nvm/nvm.o
 .bss           0x00000000        0x0 src/ASF/xmega/drivers/nvm/nvm.o
 .text.nvm_read_production_signature_row
                0x00000000        0xa src/ASF/xmega/drivers/nvm/nvm.o
 .text.nvm_read_device_serial
                0x00000000       0x64 src/ASF/xmega/drivers/nvm/nvm.o
 .text.nvm_eeprom_read_byte
                0x00000000       0x24 src/ASF/xmega/drivers/nvm/nvm.o
 .text.nvm_eeprom_split_write_page
                0x00000000       0x22 src/ASF/xmega/drivers/nvm/nvm.o
 .text.nvm_eeprom_fill_buffer_with_value
                0x00000000       0x24 src/ASF/xmega/drivers/nvm/nvm.o
 .text.nvm_eeprom_erase_bytes_in_page
                0x00000000       0x22 src/ASF/xmega/drivers/nvm/nvm.o
 .text.nvm_eeprom_erase_page
                0x00000000       0x12 src/ASF/xmega/drivers/nvm/nvm.o
 .text.nvm_eeprom_erase_bytes_in_all_pages
                0x00000000        0xa src/ASF/xmega/drivers/nvm/nvm.o
 .text.nvm_eeprom_erase_all
                0x00000000        0xa src/ASF/xmega/drivers/nvm/nvm.o
 .text.nvm_issue_flash_range_crc
                0x00000000       0x5a src/ASF/xmega/drivers/nvm/nvm.o
 .text.nvm_fuses_read
                0x00000000       0x22 src/ASF/xmega/drivers/nvm/nvm.o
 .text          0x00000000        0x0 src/ASF/xmega/drivers/nvm/nvm_asm.o
 .data          0x00000000        0x0 src/ASF/xmega/drivers/nvm/nvm_asm.o
 .bss           0x00000000        0x0 src/ASF/xmega/drivers/nvm/nvm_asm.o
 .text          0x00000000        0x0 src/ASF/xmega/drivers/cpu/ccp.o
 .data          0x00000000        0x0 src/ASF/xmega/drivers/cpu/ccp.o
 .bss           0x00000000        0x0 src/ASF/xmega/drivers/cpu/ccp.o
 .text          0x00000000        0x0 c:/program files (x86)/atmel/studio/7.0/toolchain/avr8/avr8-gnu-toolchain/bin/../lib/gcc/avr/5.4.0/../../../../avr/lib/avrxmega6\libprintf_flt.a(vfprintf_flt.o)
 .data          0x00000000        0x0 c:/program files (x86)/atmel/studio/7.0/toolchain/avr8/avr8-gnu-toolchain/bin/../lib/gcc/avr/5.4.0/../../../../avr/lib/avrxmega6\libprintf_flt.a(vfprintf_flt.o)
 .bss           0x00000000        0x0 c:/program files (x86)/atmel/studio/7.0/toolchain/avr8/avr8-gnu-toolchain/bin/../lib/gcc/avr/5.4.0/../../../../avr/lib/avrxmega6\libprintf_flt.a(vfprintf_flt.o)
 .text          0x00000000        0x0 c:/program files (x86)/atmel/studio/7.0/toolchain/avr8/avr8-gnu-toolchain/bin/../lib/gcc/avr/5.4.0/../../../../avr/lib/avrxmega6\libm.a(addsf3.o)
 .data          0x00000000        0x0 c:/program files (x86)/atmel/studio/7.0/toolchain/avr8/avr8-gnu-toolchain/bin/../lib/gcc/avr/5.4.0/../../../../avr/lib/avrxmega6\libm.a(addsf3.o)
 .bss           0x00000000        0x0 c:/program files (x86)/atmel/studio/7.0/toolchain/avr8/avr8-gnu-toolchain/bin/../lib/gcc/avr/5.4.0/../../../../avr/lib/avrxmega6\libm.a(addsf3.o)
 .text          0x00000000        0x0 c:/program files (x86)/atmel/studio/7.0/toolchain/avr8/avr8-gnu-toolchain/bin/../lib/gcc/avr/5.4.0/../../../../avr/lib/avrxmega6\libm.a(addsf3x.o)
 .data          0x00000000        0x0 c:/program files (x86)/atmel/studio/7.0/toolchain/avr8/avr8-gnu-toolchain/bin/../lib/gcc/avr/5.4.0/../../../../avr/lib/avrxmega6\libm.a(addsf3x.o)
 .bss           0x00000000        0x0 c:/program files (x86)/atmel/studio/7.0/toolchain/avr8/avr8-gnu-toolchain/bin/../lib/gcc/avr/5.4.0/../../../../avr/lib/avrxmega6\libm.a(addsf3x.o)
 .text          0x00000000        0x0 c:/program files (x86)/atmel/studio/7.0/toolchain/avr8/avr8-gnu-toolchain/bin/../lib/gcc/avr/5.4.0/../../../../avr/lib/avrxmega6\libm.a(cmpsf2.o)
 .data          0x00000000        0x0 c:/program files (x86)/atmel/studio/7.0/toolchain/avr8/avr8-gnu-toolchain/bin/../lib/gcc/avr/5.4.0/../../../../avr/lib/avrxmega6\libm.a(cmpsf2.o)
 .bss           0x00000000        0x0 c:/program files (x86)/atmel/studio/7.0/toolchain/avr8/avr8-gnu-toolchain/bin/../lib/gcc/avr/5.4.0/../../../../avr/lib/avrxmega6\libm.a(cmpsf2.o)
 .text          0x00000000        0x0 c:/program files (x86)/atmel/studio/7.0/toolchain/avr8/avr8-gnu-toolchain/bin/../lib/gcc/avr/5.4.0/../../../../avr/lib/avrxmega6\libm.a(cos.o)
 .data          0x00000000        0x0 c:/program files (x86)/atmel/studio/7.0/toolchain/avr8/avr8-gnu-toolchain/bin/../lib/gcc/avr/5.4.0/../../../../avr/lib/avrxmega6\libm.a(cos.o)
 .bss           0x00000000        0x0 c:/program files (x86)/atmel/studio/7.0/toolchain/avr8/avr8-gnu-toolchain/bin/../lib/gcc/avr/5.4.0/../../../../avr/lib/avrxmega6\libm.a(cos.o)
 .text          0x00000000        0x0 c:/program files (x86)/atmel/studio/7.0/toolchain/avr8/avr8-gnu-toolchain/bin/../lib/gcc/avr/5.4.0/../../../../avr/lib/avrxmega6\libm.a(divsf3.o)
 .data          0x00000000        0x0 c:/program files (x86)/atmel/studio/7.0/toolchain/avr8/avr8-gnu-toolchain/bin/../lib/gcc/avr/5.4.0/../../../../avr/lib/avrxmega6\libm.a(divsf3.o)
 .bss           0x00000000        0x0 c:/program files (x86)/atmel/studio/7.0/toolchain/avr8/avr8-gnu-toolchain/bin/../lib/gcc/avr/5.4.0/../../../../avr/lib/avrxmega6\libm.a(divsf3.o)
 .text          0x00000000        0x0 c:/program files (x86)/atmel/studio/7.0/toolchain/avr8/avr8-gnu-toolchain/bin/../lib/gcc/avr/5.4.0/../../../../avr/lib/avrxmega6\libm.a(divsf3x.o)
 .data          0x00000000        0x0 c:/program files (x86)/atmel/studio/7.0/toolchain/avr8/avr8-gnu-toolchain/bin/../lib/gcc/avr/5.4.0/../../../../avr/lib/avrxmega6\libm.a(divsf3x.o)
 .bss           0x00000000        0x0 c:/program files (x86)/atmel/studio/7.0/toolchain/avr8/avr8-gnu-toolchain/bin/../lib/gcc/avr/5.4.0/../../../../avr/lib/avrxmega6\libm.a(divsf3x.o)
 .text          0x00000000        0x0 c:/program files (x86)/atmel/studio/7.0/toolchain/avr8/avr8-gnu-toolchain/bin/../lib/gcc/avr/5.4.0/../../../../avr/lib/avrxmega6\libm.a(fixsfsi.o)
 .data          0x00000000        0x0 c:/program files (x86)/atmel/studio/7.0/toolchain/avr8/avr8-gnu-toolchain/bin/../lib/gcc/avr/5.4.0/../../../../avr/lib/avrxmega6\libm.a(fixsfsi.o)
 .bss           0x00000000        0x0 c:/program files (x86)/atmel/studio/7.0/toolchain/avr8/avr8-gnu-toolchain/bin/../lib/gcc/avr/5.4.0/../../../../avr/lib/avrxmega6\libm.a(fixsfsi.o)
 .text          0x00000000        0x0 c:/program files (x86)/atmel/studio/7.0/toolchain/avr8/avr8-gnu-toolchain/bin/../lib/gcc/avr/5.4.0/../../../../avr/lib/avrxmega6\libm.a(fixunssfsi.o)
 .data          0x00000000        0x0 c:/program files (x86)/atmel/studio/7.0/toolchain/avr8/avr8-gnu-toolchain/bin/../lib/gcc/avr/5.4.0/../../../../avr/lib/avrxmega6\libm.a(fixunssfsi.o)
 .bss           0x00000000        0x0 c:/program files (x86)/atmel/studio/7.0/toolchain/avr8/avr8-gnu-toolchain/bin/../lib/gcc/avr/5.4.0/../../../../avr/lib/avrxmega6\libm.a(fixunssfsi.o)
 .text          0x00000000        0x0 c:/program files (x86)/atmel/studio/7.0/toolchain/avr8/avr8-gnu-toolchain/bin/../lib/gcc/avr/5.4.0/../../../../avr/lib/avrxmega6\libm.a(floatsisf.o)
 .data          0x00000000        0x0 c:/program files (x86)/atmel/studio/7.0/toolchain/avr8/avr8-gnu-toolchain/bin/../lib/gcc/avr/5.4.0/../../../../avr/lib/avrxmega6\libm.a(floatsisf.o)
 .bss           0x00000000        0x0 c:/program files (x86)/atmel/studio/7.0/toolchain/avr8/avr8-gnu-toolchain/bin/../lib/gcc/avr/5.4.0/../../../../avr/lib/avrxmega6\libm.a(floatsisf.o)
 .text          0x00000000        0x0 c:/program files (x86)/atmel/studio/7.0/toolchain/avr8/avr8-gnu-toolchain/bin/../lib/gcc/avr/5.4.0/../../../../avr/lib/avrxmega6\libm.a(fp_cmp.o)
 .data          0x00000000        0x0 c:/program files (x86)/atmel/studio/7.0/toolchain/avr8/avr8-gnu-toolchain/bin/../lib/gcc/avr/5.4.0/../../../../avr/lib/avrxmega6\libm.a(fp_cmp.o)
 .bss           0x00000000        0x0 c:/program files (x86)/atmel/studio/7.0/toolchain/avr8/avr8-gnu-toolchain/bin/../lib/gcc/avr/5.4.0/../../../../avr/lib/avrxmega6\libm.a(fp_cmp.o)
 .text          0x00000000        0x0 c:/program files (x86)/atmel/studio/7.0/toolchain/avr8/avr8-gnu-toolchain/bin/../lib/gcc/avr/5.4.0/../../../../avr/lib/avrxmega6\libm.a(fp_inf.o)
 .data          0x00000000        0x0 c:/program files (x86)/atmel/studio/7.0/toolchain/avr8/avr8-gnu-toolchain/bin/../lib/gcc/avr/5.4.0/../../../../avr/lib/avrxmega6\libm.a(fp_inf.o)
 .bss           0x00000000        0x0 c:/program files (x86)/atmel/studio/7.0/toolchain/avr8/avr8-gnu-toolchain/bin/../lib/gcc/avr/5.4.0/../../../../avr/lib/avrxmega6\libm.a(fp_inf.o)
 .text          0x00000000        0x0 c:/program files (x86)/atmel/studio/7.0/toolchain/avr8/avr8-gnu-toolchain/bin/../lib/gcc/avr/5.4.0/../../../../avr/lib/avrxmega6\libm.a(fp_nan.o)
 .data          0x00000000        0x0 c:/program files (x86)/atmel/studio/7.0/toolchain/avr8/avr8-gnu-toolchain/bin/../lib/gcc/avr/5.4.0/../../../../avr/lib/avrxmega6\libm.a(fp_nan.o)
 .bss           0x00000000        0x0 c:/program files (x86)/atmel/studio/7.0/toolchain/avr8/avr8-gnu-toolchain/bin/../lib/gcc/avr/5.4.0/../../../../avr/lib/avrxmega6\libm.a(fp_nan.o)
 .text          0x00000000        0x0 c:/program files (x86)/atmel/studio/7.0/toolchain/avr8/avr8-gnu-toolchain/bin/../lib/gcc/avr/5.4.0/../../../../avr/lib/avrxmega6\libm.a(fp_pscA.o)
 .data          0x00000000        0x0 c:/program files (x86)/atmel/studio/7.0/toolchain/avr8/avr8-gnu-toolchain/bin/../lib/gcc/avr/5.4.0/../../../../avr/lib/avrxmega6\libm.a(fp_pscA.o)
 .bss           0x00000000        0x0 c:/program files (x86)/atmel/studio/7.0/toolchain/avr8/avr8-gnu-toolchain/bin/../lib/gcc/avr/5.4.0/../../../../avr/lib/avrxmega6\libm.a(fp_pscA.o)
 .text          0x00000000        0x0 c:/program files (x86)/atmel/studio/7.0/toolchain/avr8/avr8-gnu-toolchain/bin/../lib/gcc/avr/5.4.0/../../../../avr/lib/avrxmega6\libm.a(fp_pscB.o)
 .data          0x00000000        0x0 c:/program files (x86)/atmel/studio/7.0/toolchain/avr8/avr8-gnu-toolchain/bin/../lib/gcc/avr/5.4.0/../../../../avr/lib/avrxmega6\libm.a(fp_pscB.o)
 .bss           0x00000000        0x0 c:/program files (x86)/atmel/studio/7.0/toolchain/avr8/avr8-gnu-toolchain/bin/../lib/gcc/avr/5.4.0/../../../../avr/lib/avrxmega6\libm.a(fp_pscB.o)
 .text          0x00000000        0x0 c:/program files (x86)/atmel/studio/7.0/toolchain/avr8/avr8-gnu-toolchain/bin/../lib/gcc/avr/5.4.0/../../../../avr/lib/avrxmega6\libm.a(fp_rempio2.o)
 .data          0x00000000        0x0 c:/program files (x86)/atmel/studio/7.0/toolchain/avr8/avr8-gnu-toolchain/bin/../lib/gcc/avr/5.4.0/../../../../avr/lib/avrxmega6\libm.a(fp_rempio2.o)
 .bss           0x00000000        0x0 c:/program files (x86)/atmel/studio/7.0/toolchain/avr8/avr8-gnu-toolchain/bin/../lib/gcc/avr/5.4.0/../../../../avr/lib/avrxmega6\libm.a(fp_rempio2.o)
 .text          0x00000000        0x0 c:/program files (x86)/atmel/studio/7.0/toolchain/avr8/avr8-gnu-toolchain/bin/../lib/gcc/avr/5.4.0/../../../../avr/lib/avrxmega6\libm.a(fp_round.o)
 .data          0x00000000        0x0 c:/program files (x86)/atmel/studio/7.0/toolchain/avr8/avr8-gnu-toolchain/bin/../lib/gcc/avr/5.4.0/../../../../avr/lib/avrxmega6\libm.a(fp_round.o)
 .bss           0x00000000        0x0 c:/program files (x86)/atmel/studio/7.0/toolchain/avr8/avr8-gnu-toolchain/bin/../lib/gcc/avr/5.4.0/../../../../avr/lib/avrxmega6\libm.a(fp_round.o)
 .text          0x00000000        0x0 c:/program files (x86)/atmel/studio/7.0/toolchain/avr8/avr8-gnu-toolchain/bin/../lib/gcc/avr/5.4.0/../../../../avr/lib/avrxmega6\libm.a(fp_sinus.o)
 .data          0x00000000        0x0 c:/program files (x86)/atmel/studio/7.0/toolchain/avr8/avr8-gnu-toolchain/bin/../lib/gcc/avr/5.4.0/../../../../avr/lib/avrxmega6\libm.a(fp_sinus.o)
 .bss           0x00000000        0x0 c:/program files (x86)/atmel/studio/7.0/toolchain/avr8/avr8-gnu-toolchain/bin/../lib/gcc/avr/5.4.0/../../../../avr/lib/avrxmega6\libm.a(fp_sinus.o)
 .text          0x00000000        0x0 c:/program files (x86)/atmel/studio/7.0/toolchain/avr8/avr8-gnu-toolchain/bin/../lib/gcc/avr/5.4.0/../../../../avr/lib/avrxmega6\libm.a(fp_split3.o)
 .data          0x00000000        0x0 c:/program files (x86)/atmel/studio/7.0/toolchain/avr8/avr8-gnu-toolchain/bin/../lib/gcc/avr/5.4.0/../../../../avr/lib/avrxmega6\libm.a(fp_split3.o)
 .bss           0x00000000        0x0 c:/program files (x86)/atmel/studio/7.0/toolchain/avr8/avr8-gnu-toolchain/bin/../lib/gcc/avr/5.4.0/../../../../avr/lib/avrxmega6\libm.a(fp_split3.o)
 .text          0x00000000        0x0 c:/program files (x86)/atmel/studio/7.0/toolchain/avr8/avr8-gnu-toolchain/bin/../lib/gcc/avr/5.4.0/../../../../avr/lib/avrxmega6\libm.a(fp_zero.o)
 .data          0x00000000        0x0 c:/program files (x86)/atmel/studio/7.0/toolchain/avr8/avr8-gnu-toolchain/bin/../lib/gcc/avr/5.4.0/../../../../avr/lib/avrxmega6\libm.a(fp_zero.o)
 .bss           0x00000000        0x0 c:/program files (x86)/atmel/studio/7.0/toolchain/avr8/avr8-gnu-toolchain/bin/../lib/gcc/avr/5.4.0/../../../../avr/lib/avrxmega6\libm.a(fp_zero.o)
 .text          0x00000000        0x0 c:/program files (x86)/atmel/studio/7.0/toolchain/avr8/avr8-gnu-toolchain/bin/../lib/gcc/avr/5.4.0/../../../../avr/lib/avrxmega6\libm.a(gesf2.o)
 .data          0x00000000        0x0 c:/program files (x86)/atmel/studio/7.0/toolchain/avr8/avr8-gnu-toolchain/bin/../lib/gcc/avr/5.4.0/../../../../avr/lib/avrxmega6\libm.a(gesf2.o)
 .bss           0x00000000        0x0 c:/program files (x86)/atmel/studio/7.0/toolchain/avr8/avr8-gnu-toolchain/bin/../lib/gcc/avr/5.4.0/../../../../avr/lib/avrxmega6\libm.a(gesf2.o)
 .text          0x00000000        0x0 c:/program files (x86)/atmel/studio/7.0/toolchain/avr8/avr8-gnu-toolchain/bin/../lib/gcc/avr/5.4.0/../../../../avr/lib/avrxmega6\libm.a(mulsf3.o)
 .data          0x00000000        0x0 c:/program files (x86)/atmel/studio/7.0/toolchain/avr8/avr8-gnu-toolchain/bin/../lib/gcc/avr/5.4.0/../../../../avr/lib/avrxmega6\libm.a(mulsf3.o)
 .bss           0x00000000        0x0 c:/program files (x86)/atmel/studio/7.0/toolchain/avr8/avr8-gnu-toolchain/bin/../lib/gcc/avr/5.4.0/../../../../avr/lib/avrxmega6\libm.a(mulsf3.o)
 .text          0x00000000        0x0 c:/program files (x86)/atmel/studio/7.0/toolchain/avr8/avr8-gnu-toolchain/bin/../lib/gcc/avr/5.4.0/../../../../avr/lib/avrxmega6\libm.a(mulsf3x.o)
 .data          0x00000000        0x0 c:/program files (x86)/atmel/studio/7.0/toolchain/avr8/avr8-gnu-toolchain/bin/../lib/gcc/avr/5.4.0/../../../../avr/lib/avrxmega6\libm.a(mulsf3x.o)
 .bss           0x00000000        0x0 c:/program files (x86)/atmel/studio/7.0/toolchain/avr8/avr8-gnu-toolchain/bin/../lib/gcc/avr/5.4.0/../../../../avr/lib/avrxmega6\libm.a(mulsf3x.o)
 .text          0x00000000        0x0 c:/program files (x86)/atmel/studio/7.0/toolchain/avr8/avr8-gnu-toolchain/bin/../lib/gcc/avr/5.4.0/../../../../avr/lib/avrxmega6\libm.a(pow.o)
 .data          0x00000000        0x0 c:/program files (x86)/atmel/studio/7.0/toolchain/avr8/avr8-gnu-toolchain/bin/../lib/gcc/avr/5.4.0/../../../../avr/lib/avrxmega6\libm.a(pow.o)
 .bss           0x00000000        0x0 c:/program files (x86)/atmel/studio/7.0/toolchain/avr8/avr8-gnu-toolchain/bin/../lib/gcc/avr/5.4.0/../../../../avr/lib/avrxmega6\libm.a(pow.o)
 .text          0x00000000        0x0 c:/program files (x86)/atmel/studio/7.0/toolchain/avr8/avr8-gnu-toolchain/bin/../lib/gcc/avr/5.4.0/../../../../avr/lib/avrxmega6\libm.a(sin.o)
 .data          0x00000000        0x0 c:/program files (x86)/atmel/studio/7.0/toolchain/avr8/avr8-gnu-toolchain/bin/../lib/gcc/avr/5.4.0/../../../../avr/lib/avrxmega6\libm.a(sin.o)
 .bss           0x00000000        0x0 c:/program files (x86)/atmel/studio/7.0/toolchain/avr8/avr8-gnu-toolchain/bin/../lib/gcc/avr/5.4.0/../../../../avr/lib/avrxmega6\libm.a(sin.o)
 .text          0x00000000        0x0 c:/program files (x86)/atmel/studio/7.0/toolchain/avr8/avr8-gnu-toolchain/bin/../lib/gcc/avr/5.4.0/../../../../avr/lib/avrxmega6\libm.a(exp.o)
 .data          0x00000000        0x0 c:/program files (x86)/atmel/studio/7.0/toolchain/avr8/avr8-gnu-toolchain/bin/../lib/gcc/avr/5.4.0/../../../../avr/lib/avrxmega6\libm.a(exp.o)
 .bss           0x00000000        0x0 c:/program files (x86)/atmel/studio/7.0/toolchain/avr8/avr8-gnu-toolchain/bin/../lib/gcc/avr/5.4.0/../../../../avr/lib/avrxmega6\libm.a(exp.o)
 .text          0x00000000        0x0 c:/program files (x86)/atmel/studio/7.0/toolchain/avr8/avr8-gnu-toolchain/bin/../lib/gcc/avr/5.4.0/../../../../avr/lib/avrxmega6\libm.a(fp_mpack.o)
 .data          0x00000000        0x0 c:/program files (x86)/atmel/studio/7.0/toolchain/avr8/avr8-gnu-toolchain/bin/../lib/gcc/avr/5.4.0/../../../../avr/lib/avrxmega6\libm.a(fp_mpack.o)
 .bss           0x00000000        0x0 c:/program files (x86)/atmel/studio/7.0/toolchain/avr8/avr8-gnu-toolchain/bin/../lib/gcc/avr/5.4.0/../../../../avr/lib/avrxmega6\libm.a(fp_mpack.o)
 .text          0x00000000        0x0 c:/program files (x86)/atmel/studio/7.0/toolchain/avr8/avr8-gnu-toolchain/bin/../lib/gcc/avr/5.4.0/../../../../avr/lib/avrxmega6\libm.a(fp_powser.o)
 .data          0x00000000        0x0 c:/program files (x86)/atmel/studio/7.0/toolchain/avr8/avr8-gnu-toolchain/bin/../lib/gcc/avr/5.4.0/../../../../avr/lib/avrxmega6\libm.a(fp_powser.o)
 .bss           0x00000000        0x0 c:/program files (x86)/atmel/studio/7.0/toolchain/avr8/avr8-gnu-toolchain/bin/../lib/gcc/avr/5.4.0/../../../../avr/lib/avrxmega6\libm.a(fp_powser.o)
 .text          0x00000000        0x0 c:/program files (x86)/atmel/studio/7.0/toolchain/avr8/avr8-gnu-toolchain/bin/../lib/gcc/avr/5.4.0/../../../../avr/lib/avrxmega6\libm.a(fp_powsodd.o)
 .data          0x00000000        0x0 c:/program files (x86)/atmel/studio/7.0/toolchain/avr8/avr8-gnu-toolchain/bin/../lib/gcc/avr/5.4.0/../../../../avr/lib/avrxmega6\libm.a(fp_powsodd.o)
 .bss           0x00000000        0x0 c:/program files (x86)/atmel/studio/7.0/toolchain/avr8/avr8-gnu-toolchain/bin/../lib/gcc/avr/5.4.0/../../../../avr/lib/avrxmega6\libm.a(fp_powsodd.o)
 .text          0x00000000        0x0 c:/program files (x86)/atmel/studio/7.0/toolchain/avr8/avr8-gnu-toolchain/bin/../lib/gcc/avr/5.4.0/../../../../avr/lib/avrxmega6\libm.a(inverse.o)
 .data          0x00000000        0x0 c:/program files (x86)/atmel/studio/7.0/toolchain/avr8/avr8-gnu-toolchain/bin/../lib/gcc/avr/5.4.0/../../../../avr/lib/avrxmega6\libm.a(inverse.o)
 .bss           0x00000000        0x0 c:/program files (x86)/atmel/studio/7.0/toolchain/avr8/avr8-gnu-toolchain/bin/../lib/gcc/avr/5.4.0/../../../../avr/lib/avrxmega6\libm.a(inverse.o)
 .text          0x00000000        0x0 c:/program files (x86)/atmel/studio/7.0/toolchain/avr8/avr8-gnu-toolchain/bin/../lib/gcc/avr/5.4.0/../../../../avr/lib/avrxmega6\libm.a(ldexp.o)
 .data          0x00000000        0x0 c:/program files (x86)/atmel/studio/7.0/toolchain/avr8/avr8-gnu-toolchain/bin/../lib/gcc/avr/5.4.0/../../../../avr/lib/avrxmega6\libm.a(ldexp.o)
 .bss           0x00000000        0x0 c:/program files (x86)/atmel/studio/7.0/toolchain/avr8/avr8-gnu-toolchain/bin/../lib/gcc/avr/5.4.0/../../../../avr/lib/avrxmega6\libm.a(ldexp.o)
 .text          0x00000000        0x0 c:/program files (x86)/atmel/studio/7.0/toolchain/avr8/avr8-gnu-toolchain/bin/../lib/gcc/avr/5.4.0/../../../../avr/lib/avrxmega6\libm.a(log.o)
 .data          0x00000000        0x0 c:/program files (x86)/atmel/studio/7.0/toolchain/avr8/avr8-gnu-toolchain/bin/../lib/gcc/avr/5.4.0/../../../../avr/lib/avrxmega6\libm.a(log.o)
 .bss           0x00000000        0x0 c:/program files (x86)/atmel/studio/7.0/toolchain/avr8/avr8-gnu-toolchain/bin/../lib/gcc/avr/5.4.0/../../../../avr/lib/avrxmega6\libm.a(log.o)
 .text          0x00000000        0x0 c:/program files (x86)/atmel/studio/7.0/toolchain/avr8/avr8-gnu-toolchain/bin/../lib/gcc/avr/5.4.0/../../../../avr/lib/avrxmega6\libm.a(modf.o)
 .data          0x00000000        0x0 c:/program files (x86)/atmel/studio/7.0/toolchain/avr8/avr8-gnu-toolchain/bin/../lib/gcc/avr/5.4.0/../../../../avr/lib/avrxmega6\libm.a(modf.o)
 .bss           0x00000000        0x0 c:/program files (x86)/atmel/studio/7.0/toolchain/avr8/avr8-gnu-toolchain/bin/../lib/gcc/avr/5.4.0/../../../../avr/lib/avrxmega6\libm.a(modf.o)
 .text          0x00000000        0x0 c:/program files (x86)/atmel/studio/7.0/toolchain/avr8/avr8-gnu-toolchain/bin/../lib/gcc/avr/5.4.0/avrxmega6\libgcc.a(_mulsi3.o)
 .data          0x00000000        0x0 c:/program files (x86)/atmel/studio/7.0/toolchain/avr8/avr8-gnu-toolchain/bin/../lib/gcc/avr/5.4.0/avrxmega6\libgcc.a(_mulsi3.o)
 .bss           0x00000000        0x0 c:/program files (x86)/atmel/studio/7.0/toolchain/avr8/avr8-gnu-toolchain/bin/../lib/gcc/avr/5.4.0/avrxmega6\libgcc.a(_mulsi3.o)
 .text.libgcc.div
                0x00000000        0x0 c:/program files (x86)/atmel/studio/7.0/toolchain/avr8/avr8-gnu-toolchain/bin/../lib/gcc/avr/5.4.0/avrxmega6\libgcc.a(_mulsi3.o)
 .text.libgcc   0x00000000        0x0 c:/program files (x86)/atmel/studio/7.0/toolchain/avr8/avr8-gnu-toolchain/bin/../lib/gcc/avr/5.4.0/avrxmega6\libgcc.a(_mulsi3.o)
 .text.libgcc.prologue
                0x00000000        0x0 c:/program files (x86)/atmel/studio/7.0/toolchain/avr8/avr8-gnu-toolchain/bin/../lib/gcc/avr/5.4.0/avrxmega6\libgcc.a(_mulsi3.o)
 .text.libgcc.builtins
                0x00000000        0x0 c:/program files (x86)/atmel/studio/7.0/toolchain/avr8/avr8-gnu-toolchain/bin/../lib/gcc/avr/5.4.0/avrxmega6\libgcc.a(_mulsi3.o)
 .text.libgcc.fmul
                0x00000000        0x0 c:/program files (x86)/atmel/studio/7.0/toolchain/avr8/avr8-gnu-toolchain/bin/../lib/gcc/avr/5.4.0/avrxmega6\libgcc.a(_mulsi3.o)
 .text.libgcc.fixed
                0x00000000        0x0 c:/program files (x86)/atmel/studio/7.0/toolchain/avr8/avr8-gnu-toolchain/bin/../lib/gcc/avr/5.4.0/avrxmega6\libgcc.a(_mulsi3.o)
 .text          0x00000000        0x0 c:/program files (x86)/atmel/studio/7.0/toolchain/avr8/avr8-gnu-toolchain/bin/../lib/gcc/avr/5.4.0/avrxmega6\libgcc.a(_udivmodhi4.o)
 .data          0x00000000        0x0 c:/program files (x86)/atmel/studio/7.0/toolchain/avr8/avr8-gnu-toolchain/bin/../lib/gcc/avr/5.4.0/avrxmega6\libgcc.a(_udivmodhi4.o)
 .bss           0x00000000        0x0 c:/program files (x86)/atmel/studio/7.0/toolchain/avr8/avr8-gnu-toolchain/bin/../lib/gcc/avr/5.4.0/avrxmega6\libgcc.a(_udivmodhi4.o)
 .text.libgcc.mul
                0x00000000        0x0 c:/program files (x86)/atmel/studio/7.0/toolchain/avr8/avr8-gnu-toolchain/bin/../lib/gcc/avr/5.4.0/avrxmega6\libgcc.a(_udivmodhi4.o)
 .text.libgcc   0x00000000        0x0 c:/program files (x86)/atmel/studio/7.0/toolchain/avr8/avr8-gnu-toolchain/bin/../lib/gcc/avr/5.4.0/avrxmega6\libgcc.a(_udivmodhi4.o)
 .text.libgcc.prologue
                0x00000000        0x0 c:/program files (x86)/atmel/studio/7.0/toolchain/avr8/avr8-gnu-toolchain/bin/../lib/gcc/avr/5.4.0/avrxmega6\libgcc.a(_udivmodhi4.o)
 .text.libgcc.builtins
                0x00000000        0x0 c:/program files (x86)/atmel/studio/7.0/toolchain/avr8/avr8-gnu-toolchain/bin/../lib/gcc/avr/5.4.0/avrxmega6\libgcc.a(_udivmodhi4.o)
 .text.libgcc.fmul
                0x00000000        0x0 c:/program files (x86)/atmel/studio/7.0/toolchain/avr8/avr8-gnu-toolchain/bin/../lib/gcc/avr/5.4.0/avrxmega6\libgcc.a(_udivmodhi4.o)
 .text.libgcc.fixed
                0x00000000        0x0 c:/program files (x86)/atmel/studio/7.0/toolchain/avr8/avr8-gnu-toolchain/bin/../lib/gcc/avr/5.4.0/avrxmega6\libgcc.a(_udivmodhi4.o)
 .text          0x00000000        0x0 c:/program files (x86)/atmel/studio/7.0/toolchain/avr8/avr8-gnu-toolchain/bin/../lib/gcc/avr/5.4.0/avrxmega6\libgcc.a(_divmodhi4.o)
 .data          0x00000000        0x0 c:/program files (x86)/atmel/studio/7.0/toolchain/avr8/avr8-gnu-toolchain/bin/../lib/gcc/avr/5.4.0/avrxmega6\libgcc.a(_divmodhi4.o)
 .bss           0x00000000        0x0 c:/program files (x86)/atmel/studio/7.0/toolchain/avr8/avr8-gnu-toolchain/bin/../lib/gcc/avr/5.4.0/avrxmega6\libgcc.a(_divmodhi4.o)
 .text.libgcc.mul
                0x00000000        0x0 c:/program files (x86)/atmel/studio/7.0/toolchain/avr8/avr8-gnu-toolchain/bin/../lib/gcc/avr/5.4.0/avrxmega6\libgcc.a(_divmodhi4.o)
 .text.libgcc   0x00000000        0x0 c:/program files (x86)/atmel/studio/7.0/toolchain/avr8/avr8-gnu-toolchain/bin/../lib/gcc/avr/5.4.0/avrxmega6\libgcc.a(_divmodhi4.o)
 .text.libgcc.prologue
                0x00000000        0x0 c:/program files (x86)/atmel/studio/7.0/toolchain/avr8/avr8-gnu-toolchain/bin/../lib/gcc/avr/5.4.0/avrxmega6\libgcc.a(_divmodhi4.o)
 .text.libgcc.builtins
                0x00000000        0x0 c:/program files (x86)/atmel/studio/7.0/toolchain/avr8/avr8-gnu-toolchain/bin/../lib/gcc/avr/5.4.0/avrxmega6\libgcc.a(_divmodhi4.o)
 .text.libgcc.fmul
                0x00000000        0x0 c:/program files (x86)/atmel/studio/7.0/toolchain/avr8/avr8-gnu-toolchain/bin/../lib/gcc/avr/5.4.0/avrxmega6\libgcc.a(_divmodhi4.o)
 .text.libgcc.fixed
                0x00000000        0x0 c:/program files (x86)/atmel/studio/7.0/toolchain/avr8/avr8-gnu-toolchain/bin/../lib/gcc/avr/5.4.0/avrxmega6\libgcc.a(_divmodhi4.o)
 .text          0x00000000        0x0 c:/program files (x86)/atmel/studio/7.0/toolchain/avr8/avr8-gnu-toolchain/bin/../lib/gcc/avr/5.4.0/avrxmega6\libgcc.a(_udivmodsi4.o)
 .data          0x00000000        0x0 c:/program files (x86)/atmel/studio/7.0/toolchain/avr8/avr8-gnu-toolchain/bin/../lib/gcc/avr/5.4.0/avrxmega6\libgcc.a(_udivmodsi4.o)
 .bss           0x00000000        0x0 c:/program files (x86)/atmel/studio/7.0/toolchain/avr8/avr8-gnu-toolchain/bin/../lib/gcc/avr/5.4.0/avrxmega6\libgcc.a(_udivmodsi4.o)
 .text.libgcc.mul
                0x00000000        0x0 c:/program files (x86)/atmel/studio/7.0/toolchain/avr8/avr8-gnu-toolchain/bin/../lib/gcc/avr/5.4.0/avrxmega6\libgcc.a(_udivmodsi4.o)
 .text.libgcc   0x00000000        0x0 c:/program files (x86)/atmel/studio/7.0/toolchain/avr8/avr8-gnu-toolchain/bin/../lib/gcc/avr/5.4.0/avrxmega6\libgcc.a(_udivmodsi4.o)
 .text.libgcc.prologue
                0x00000000        0x0 c:/program files (x86)/atmel/studio/7.0/toolchain/avr8/avr8-gnu-toolchain/bin/../lib/gcc/avr/5.4.0/avrxmega6\libgcc.a(_udivmodsi4.o)
 .text.libgcc.builtins
                0x00000000        0x0 c:/program files (x86)/atmel/studio/7.0/toolchain/avr8/avr8-gnu-toolchain/bin/../lib/gcc/avr/5.4.0/avrxmega6\libgcc.a(_udivmodsi4.o)
 .text.libgcc.fmul
                0x00000000        0x0 c:/program files (x86)/atmel/studio/7.0/toolchain/avr8/avr8-gnu-toolchain/bin/../lib/gcc/avr/5.4.0/avrxmega6\libgcc.a(_udivmodsi4.o)
 .text.libgcc.fixed
                0x00000000        0x0 c:/program files (x86)/atmel/studio/7.0/toolchain/avr8/avr8-gnu-toolchain/bin/../lib/gcc/avr/5.4.0/avrxmega6\libgcc.a(_udivmodsi4.o)
 .text          0x00000000        0x0 c:/program files (x86)/atmel/studio/7.0/toolchain/avr8/avr8-gnu-toolchain/bin/../lib/gcc/avr/5.4.0/avrxmega6\libgcc.a(_divmodsi4.o)
 .data          0x00000000        0x0 c:/program files (x86)/atmel/studio/7.0/toolchain/avr8/avr8-gnu-toolchain/bin/../lib/gcc/avr/5.4.0/avrxmega6\libgcc.a(_divmodsi4.o)
 .bss           0x00000000        0x0 c:/program files (x86)/atmel/studio/7.0/toolchain/avr8/avr8-gnu-toolchain/bin/../lib/gcc/avr/5.4.0/avrxmega6\libgcc.a(_divmodsi4.o)
 .text.libgcc.mul
                0x00000000        0x0 c:/program files (x86)/atmel/studio/7.0/toolchain/avr8/avr8-gnu-toolchain/bin/../lib/gcc/avr/5.4.0/avrxmega6\libgcc.a(_divmodsi4.o)
 .text.libgcc   0x00000000        0x0 c:/program files (x86)/atmel/studio/7.0/toolchain/avr8/avr8-gnu-toolchain/bin/../lib/gcc/avr/5.4.0/avrxmega6\libgcc.a(_divmodsi4.o)
 .text.libgcc.prologue
                0x00000000        0x0 c:/program files (x86)/atmel/studio/7.0/toolchain/avr8/avr8-gnu-toolchain/bin/../lib/gcc/avr/5.4.0/avrxmega6\libgcc.a(_divmodsi4.o)
 .text.libgcc.builtins
                0x00000000        0x0 c:/program files (x86)/atmel/studio/7.0/toolchain/avr8/avr8-gnu-toolchain/bin/../lib/gcc/avr/5.4.0/avrxmega6\libgcc.a(_divmodsi4.o)
 .text.libgcc.fmul
                0x00000000        0x0 c:/program files (x86)/atmel/studio/7.0/toolchain/avr8/avr8-gnu-toolchain/bin/../lib/gcc/avr/5.4.0/avrxmega6\libgcc.a(_divmodsi4.o)
 .text.libgcc.fixed
                0x00000000        0x0 c:/program files (x86)/atmel/studio/7.0/toolchain/avr8/avr8-gnu-toolchain/bin/../lib/gcc/avr/5.4.0/avrxmega6\libgcc.a(_divmodsi4.o)
 .text          0x00000000        0x0 c:/program files (x86)/atmel/studio/7.0/toolchain/avr8/avr8-gnu-toolchain/bin/../lib/gcc/avr/5.4.0/avrxmega6\libgcc.a(_negsi2.o)
 .data          0x00000000        0x0 c:/program files (x86)/atmel/studio/7.0/toolchain/avr8/avr8-gnu-toolchain/bin/../lib/gcc/avr/5.4.0/avrxmega6\libgcc.a(_negsi2.o)
 .bss           0x00000000        0x0 c:/program files (x86)/atmel/studio/7.0/toolchain/avr8/avr8-gnu-toolchain/bin/../lib/gcc/avr/5.4.0/avrxmega6\libgcc.a(_negsi2.o)
 .text.libgcc.mul
                0x00000000        0x0 c:/program files (x86)/atmel/studio/7.0/toolchain/avr8/avr8-gnu-toolchain/bin/../lib/gcc/avr/5.4.0/avrxmega6\libgcc.a(_negsi2.o)
 .text.libgcc   0x00000000        0x0 c:/program files (x86)/atmel/studio/7.0/toolchain/avr8/avr8-gnu-toolchain/bin/../lib/gcc/avr/5.4.0/avrxmega6\libgcc.a(_negsi2.o)
 .text.libgcc.prologue
                0x00000000        0x0 c:/program files (x86)/atmel/studio/7.0/toolchain/avr8/avr8-gnu-toolchain/bin/../lib/gcc/avr/5.4.0/avrxmega6\libgcc.a(_negsi2.o)
 .text.libgcc.builtins
                0x00000000        0x0 c:/program files (x86)/atmel/studio/7.0/toolchain/avr8/avr8-gnu-toolchain/bin/../lib/gcc/avr/5.4.0/avrxmega6\libgcc.a(_negsi2.o)
 .text.libgcc.fmul
                0x00000000        0x0 c:/program files (x86)/atmel/studio/7.0/toolchain/avr8/avr8-gnu-toolchain/bin/../lib/gcc/avr/5.4.0/avrxmega6\libgcc.a(_negsi2.o)
 .text.libgcc.fixed
                0x00000000        0x0 c:/program files (x86)/atmel/studio/7.0/toolchain/avr8/avr8-gnu-toolchain/bin/../lib/gcc/avr/5.4.0/avrxmega6\libgcc.a(_negsi2.o)
 .text          0x00000000        0x0 c:/program files (x86)/atmel/studio/7.0/toolchain/avr8/avr8-gnu-toolchain/bin/../lib/gcc/avr/5.4.0/avrxmega6\libgcc.a(_exit.o)
 .data          0x00000000        0x0 c:/program files (x86)/atmel/studio/7.0/toolchain/avr8/avr8-gnu-toolchain/bin/../lib/gcc/avr/5.4.0/avrxmega6\libgcc.a(_exit.o)
 .bss           0x00000000        0x0 c:/program files (x86)/atmel/studio/7.0/toolchain/avr8/avr8-gnu-toolchain/bin/../lib/gcc/avr/5.4.0/avrxmega6\libgcc.a(_exit.o)
 .text.libgcc.mul
                0x00000000        0x0 c:/program files (x86)/atmel/studio/7.0/toolchain/avr8/avr8-gnu-toolchain/bin/../lib/gcc/avr/5.4.0/avrxmega6\libgcc.a(_exit.o)
 .text.libgcc.div
                0x00000000        0x0 c:/program files (x86)/atmel/studio/7.0/toolchain/avr8/avr8-gnu-toolchain/bin/../lib/gcc/avr/5.4.0/avrxmega6\libgcc.a(_exit.o)
 .text.libgcc   0x00000000        0x0 c:/program files (x86)/atmel/studio/7.0/toolchain/avr8/avr8-gnu-toolchain/bin/../lib/gcc/avr/5.4.0/avrxmega6\libgcc.a(_exit.o)
 .text.libgcc.prologue
                0x00000000        0x0 c:/program files (x86)/atmel/studio/7.0/toolchain/avr8/avr8-gnu-toolchain/bin/../lib/gcc/avr/5.4.0/avrxmega6\libgcc.a(_exit.o)
 .text.libgcc.builtins
                0x00000000        0x0 c:/program files (x86)/atmel/studio/7.0/toolchain/avr8/avr8-gnu-toolchain/bin/../lib/gcc/avr/5.4.0/avrxmega6\libgcc.a(_exit.o)
 .text.libgcc.fmul
                0x00000000        0x0 c:/program files (x86)/atmel/studio/7.0/toolchain/avr8/avr8-gnu-toolchain/bin/../lib/gcc/avr/5.4.0/avrxmega6\libgcc.a(_exit.o)
 .text.libgcc.fixed
                0x00000000        0x0 c:/program files (x86)/atmel/studio/7.0/toolchain/avr8/avr8-gnu-toolchain/bin/../lib/gcc/avr/5.4.0/avrxmega6\libgcc.a(_exit.o)
 .text          0x00000000        0x0 c:/program files (x86)/atmel/studio/7.0/toolchain/avr8/avr8-gnu-toolchain/bin/../lib/gcc/avr/5.4.0/avrxmega6\libgcc.a(_tablejump2.o)
 .data          0x00000000        0x0 c:/program files (x86)/atmel/studio/7.0/toolchain/avr8/avr8-gnu-toolchain/bin/../lib/gcc/avr/5.4.0/avrxmega6\libgcc.a(_tablejump2.o)
 .bss           0x00000000        0x0 c:/program files (x86)/atmel/studio/7.0/toolchain/avr8/avr8-gnu-toolchain/bin/../lib/gcc/avr/5.4.0/avrxmega6\libgcc.a(_tablejump2.o)
 .text.libgcc.mul
                0x00000000        0x0 c:/program files (x86)/atmel/studio/7.0/toolchain/avr8/avr8-gnu-toolchain/bin/../lib/gcc/avr/5.4.0/avrxmega6\libgcc.a(_tablejump2.o)
 .text.libgcc.div
                0x00000000        0x0 c:/program files (x86)/atmel/studio/7.0/toolchain/avr8/avr8-gnu-toolchain/bin/../lib/gcc/avr/5.4.0/avrxmega6\libgcc.a(_tablejump2.o)
 .text.libgcc.prologue
                0x00000000        0x0 c:/program files (x86)/atmel/studio/7.0/toolchain/avr8/avr8-gnu-toolchain/bin/../lib/gcc/avr/5.4.0/avrxmega6\libgcc.a(_tablejump2.o)
 .text.libgcc.builtins
                0x00000000        0x0 c:/program files (x86)/atmel/studio/7.0/toolchain/avr8/avr8-gnu-toolchain/bin/../lib/gcc/avr/5.4.0/avrxmega6\libgcc.a(_tablejump2.o)
 .text.libgcc.fmul
                0x00000000        0x0 c:/program files (x86)/atmel/studio/7.0/toolchain/avr8/avr8-gnu-toolchain/bin/../lib/gcc/avr/5.4.0/avrxmega6\libgcc.a(_tablejump2.o)
 .text.libgcc.fixed
                0x00000000        0x0 c:/program files (x86)/atmel/studio/7.0/toolchain/avr8/avr8-gnu-toolchain/bin/../lib/gcc/avr/5.4.0/avrxmega6\libgcc.a(_tablejump2.o)
 .text          0x00000000        0x0 c:/program files (x86)/atmel/studio/7.0/toolchain/avr8/avr8-gnu-toolchain/bin/../lib/gcc/avr/5.4.0/avrxmega6\libgcc.a(_copy_data.o)
 .data          0x00000000        0x0 c:/program files (x86)/atmel/studio/7.0/toolchain/avr8/avr8-gnu-toolchain/bin/../lib/gcc/avr/5.4.0/avrxmega6\libgcc.a(_copy_data.o)
 .bss           0x00000000        0x0 c:/program files (x86)/atmel/studio/7.0/toolchain/avr8/avr8-gnu-toolchain/bin/../lib/gcc/avr/5.4.0/avrxmega6\libgcc.a(_copy_data.o)
 .text.libgcc.mul
                0x00000000        0x0 c:/program files (x86)/atmel/studio/7.0/toolchain/avr8/avr8-gnu-toolchain/bin/../lib/gcc/avr/5.4.0/avrxmega6\libgcc.a(_copy_data.o)
 .text.libgcc.div
                0x00000000        0x0 c:/program files (x86)/atmel/studio/7.0/toolchain/avr8/avr8-gnu-toolchain/bin/../lib/gcc/avr/5.4.0/avrxmega6\libgcc.a(_copy_data.o)
 .text.libgcc   0x00000000        0x0 c:/program files (x86)/atmel/studio/7.0/toolchain/avr8/avr8-gnu-toolchain/bin/../lib/gcc/avr/5.4.0/avrxmega6\libgcc.a(_copy_data.o)
 .text.libgcc.prologue
                0x00000000        0x0 c:/program files (x86)/atmel/studio/7.0/toolchain/avr8/avr8-gnu-toolchain/bin/../lib/gcc/avr/5.4.0/avrxmega6\libgcc.a(_copy_data.o)
 .text.libgcc.builtins
                0x00000000        0x0 c:/program files (x86)/atmel/studio/7.0/toolchain/avr8/avr8-gnu-toolchain/bin/../lib/gcc/avr/5.4.0/avrxmega6\libgcc.a(_copy_data.o)
 .text.libgcc.fmul
                0x00000000        0x0 c:/program files (x86)/atmel/studio/7.0/toolchain/avr8/avr8-gnu-toolchain/bin/../lib/gcc/avr/5.4.0/avrxmega6\libgcc.a(_copy_data.o)
 .text.libgcc.fixed
                0x00000000        0x0 c:/program files (x86)/atmel/studio/7.0/toolchain/avr8/avr8-gnu-toolchain/bin/../lib/gcc/avr/5.4.0/avrxmega6\libgcc.a(_copy_data.o)
 .text          0x00000000        0x0 c:/program files (x86)/atmel/studio/7.0/toolchain/avr8/avr8-gnu-toolchain/bin/../lib/gcc/avr/5.4.0/avrxmega6\libgcc.a(_clear_bss.o)
 .data          0x00000000        0x0 c:/program files (x86)/atmel/studio/7.0/toolchain/avr8/avr8-gnu-toolchain/bin/../lib/gcc/avr/5.4.0/avrxmega6\libgcc.a(_clear_bss.o)
 .bss           0x00000000        0x0 c:/program files (x86)/atmel/studio/7.0/toolchain/avr8/avr8-gnu-toolchain/bin/../lib/gcc/avr/5.4.0/avrxmega6\libgcc.a(_clear_bss.o)
 .text.libgcc.mul
                0x00000000        0x0 c:/program files (x86)/atmel/studio/7.0/toolchain/avr8/avr8-gnu-toolchain/bin/../lib/gcc/avr/5.4.0/avrxmega6\libgcc.a(_clear_bss.o)
 .text.libgcc.div
                0x00000000        0x0 c:/program files (x86)/atmel/studio/7.0/toolchain/avr8/avr8-gnu-toolchain/bin/../lib/gcc/avr/5.4.0/avrxmega6\libgcc.a(_clear_bss.o)
 .text.libgcc   0x00000000        0x0 c:/program files (x86)/atmel/studio/7.0/toolchain/avr8/avr8-gnu-toolchain/bin/../lib/gcc/avr/5.4.0/avrxmega6\libgcc.a(_clear_bss.o)
 .text.libgcc.prologue
                0x00000000        0x0 c:/program files (x86)/atmel/studio/7.0/toolchain/avr8/avr8-gnu-toolchain/bin/../lib/gcc/avr/5.4.0/avrxmega6\libgcc.a(_clear_bss.o)
 .text.libgcc.builtins
                0x00000000        0x0 c:/program files (x86)/atmel/studio/7.0/toolchain/avr8/avr8-gnu-toolchain/bin/../lib/gcc/avr/5.4.0/avrxmega6\libgcc.a(_clear_bss.o)
 .text.libgcc.fmul
                0x00000000        0x0 c:/program files (x86)/atmel/studio/7.0/toolchain/avr8/avr8-gnu-toolchain/bin/../lib/gcc/avr/5.4.0/avrxmega6\libgcc.a(_clear_bss.o)
 .text.libgcc.fixed
                0x00000000        0x0 c:/program files (x86)/atmel/studio/7.0/toolchain/avr8/avr8-gnu-toolchain/bin/../lib/gcc/avr/5.4.0/avrxmega6\libgcc.a(_clear_bss.o)
 .text          0x00000000        0x0 c:/program files (x86)/atmel/studio/7.0/toolchain/avr8/avr8-gnu-toolchain/bin/../lib/gcc/avr/5.4.0/avrxmega6\libgcc.a(_mulhisi3.o)
 .data          0x00000000        0x0 c:/program files (x86)/atmel/studio/7.0/toolchain/avr8/avr8-gnu-toolchain/bin/../lib/gcc/avr/5.4.0/avrxmega6\libgcc.a(_mulhisi3.o)
 .bss           0x00000000        0x0 c:/program files (x86)/atmel/studio/7.0/toolchain/avr8/avr8-gnu-toolchain/bin/../lib/gcc/avr/5.4.0/avrxmega6\libgcc.a(_mulhisi3.o)
 .text.libgcc.div
                0x00000000        0x0 c:/program files (x86)/atmel/studio/7.0/toolchain/avr8/avr8-gnu-toolchain/bin/../lib/gcc/avr/5.4.0/avrxmega6\libgcc.a(_mulhisi3.o)
 .text.libgcc   0x00000000        0x0 c:/program files (x86)/atmel/studio/7.0/toolchain/avr8/avr8-gnu-toolchain/bin/../lib/gcc/avr/5.4.0/avrxmega6\libgcc.a(_mulhisi3.o)
 .text.libgcc.prologue
                0x00000000        0x0 c:/program files (x86)/atmel/studio/7.0/toolchain/avr8/avr8-gnu-toolchain/bin/../lib/gcc/avr/5.4.0/avrxmega6\libgcc.a(_mulhisi3.o)
 .text.libgcc.builtins
                0x00000000        0x0 c:/program files (x86)/atmel/studio/7.0/toolchain/avr8/avr8-gnu-toolchain/bin/../lib/gcc/avr/5.4.0/avrxmega6\libgcc.a(_mulhisi3.o)
 .text.libgcc.fmul
                0x00000000        0x0 c:/program files (x86)/atmel/studio/7.0/toolchain/avr8/avr8-gnu-toolchain/bin/../lib/gcc/avr/5.4.0/avrxmega6\libgcc.a(_mulhisi3.o)
 .text.libgcc.fixed
                0x00000000        0x0 c:/program files (x86)/atmel/studio/7.0/toolchain/avr8/avr8-gnu-toolchain/bin/../lib/gcc/avr/5.4.0/avrxmega6\libgcc.a(_mulhisi3.o)
 .text          0x00000000        0x0 c:/program files (x86)/atmel/studio/7.0/toolchain/avr8/avr8-gnu-toolchain/bin/../lib/gcc/avr/5.4.0/avrxmega6\libgcc.a(_umulhisi3.o)
 .data          0x00000000        0x0 c:/program files (x86)/atmel/studio/7.0/toolchain/avr8/avr8-gnu-toolchain/bin/../lib/gcc/avr/5.4.0/avrxmega6\libgcc.a(_umulhisi3.o)
 .bss           0x00000000        0x0 c:/program files (x86)/atmel/studio/7.0/toolchain/avr8/avr8-gnu-toolchain/bin/../lib/gcc/avr/5.4.0/avrxmega6\libgcc.a(_umulhisi3.o)
 .text.libgcc.div
                0x00000000        0x0 c:/program files (x86)/atmel/studio/7.0/toolchain/avr8/avr8-gnu-toolchain/bin/../lib/gcc/avr/5.4.0/avrxmega6\libgcc.a(_umulhisi3.o)
 .text.libgcc   0x00000000        0x0 c:/program files (x86)/atmel/studio/7.0/toolchain/avr8/avr8-gnu-toolchain/bin/../lib/gcc/avr/5.4.0/avrxmega6\libgcc.a(_umulhisi3.o)
 .text.libgcc.prologue
                0x00000000        0x0 c:/program files (x86)/atmel/studio/7.0/toolchain/avr8/avr8-gnu-toolchain/bin/../lib/gcc/avr/5.4.0/avrxmega6\libgcc.a(_umulhisi3.o)
 .text.libgcc.builtins
                0x00000000        0x0 c:/program files (x86)/atmel/studio/7.0/toolchain/avr8/avr8-gnu-toolchain/bin/../lib/gcc/avr/5.4.0/avrxmega6\libgcc.a(_umulhisi3.o)
 .text.libgcc.fmul
                0x00000000        0x0 c:/program files (x86)/atmel/studio/7.0/toolchain/avr8/avr8-gnu-toolchain/bin/../lib/gcc/avr/5.4.0/avrxmega6\libgcc.a(_umulhisi3.o)
 .text.libgcc.fixed
                0x00000000        0x0 c:/program files (x86)/atmel/studio/7.0/toolchain/avr8/avr8-gnu-toolchain/bin/../lib/gcc/avr/5.4.0/avrxmega6\libgcc.a(_umulhisi3.o)
 .text          0x00000000        0x0 c:/program files (x86)/atmel/studio/7.0/toolchain/avr8/avr8-gnu-toolchain/bin/../lib/gcc/avr/5.4.0/avrxmega6\libgcc.a(_usmulhisi3.o)
 .data          0x00000000        0x0 c:/program files (x86)/atmel/studio/7.0/toolchain/avr8/avr8-gnu-toolchain/bin/../lib/gcc/avr/5.4.0/avrxmega6\libgcc.a(_usmulhisi3.o)
 .bss           0x00000000        0x0 c:/program files (x86)/atmel/studio/7.0/toolchain/avr8/avr8-gnu-toolchain/bin/../lib/gcc/avr/5.4.0/avrxmega6\libgcc.a(_usmulhisi3.o)
 .text.libgcc.div
                0x00000000        0x0 c:/program files (x86)/atmel/studio/7.0/toolchain/avr8/avr8-gnu-toolchain/bin/../lib/gcc/avr/5.4.0/avrxmega6\libgcc.a(_usmulhisi3.o)
 .text.libgcc   0x00000000        0x0 c:/program files (x86)/atmel/studio/7.0/toolchain/avr8/avr8-gnu-toolchain/bin/../lib/gcc/avr/5.4.0/avrxmega6\libgcc.a(_usmulhisi3.o)
 .text.libgcc.prologue
                0x00000000        0x0 c:/program files (x86)/atmel/studio/7.0/toolchain/avr8/avr8-gnu-toolchain/bin/../lib/gcc/avr/5.4.0/avrxmega6\libgcc.a(_usmulhisi3.o)
 .text.libgcc.builtins
                0x00000000        0x0 c:/program files (x86)/atmel/studio/7.0/toolchain/avr8/avr8-gnu-toolchain/bin/../lib/gcc/avr/5.4.0/avrxmega6\libgcc.a(_usmulhisi3.o)
 .text.libgcc.fmul
                0x00000000        0x0 c:/program files (x86)/atmel/studio/7.0/toolchain/avr8/avr8-gnu-toolchain/bin/../lib/gcc/avr/5.4.0/avrxmega6\libgcc.a(_usmulhisi3.o)
 .text.libgcc.fixed
                0x00000000        0x0 c:/program files (x86)/atmel/studio/7.0/toolchain/avr8/avr8-gnu-toolchain/bin/../lib/gcc/avr/5.4.0/avrxmega6\libgcc.a(_usmulhisi3.o)
 .text          0x00000000        0x0 c:/program files (x86)/atmel/studio/7.0/toolchain/avr8/avr8-gnu-toolchain/bin/../lib/gcc/avr/5.4.0/avrxmega6\libgcc.a(_muluhisi3.o)
 .data          0x00000000        0x0 c:/program files (x86)/atmel/studio/7.0/toolchain/avr8/avr8-gnu-toolchain/bin/../lib/gcc/avr/5.4.0/avrxmega6\libgcc.a(_muluhisi3.o)
 .bss           0x00000000        0x0 c:/program files (x86)/atmel/studio/7.0/toolchain/avr8/avr8-gnu-toolchain/bin/../lib/gcc/avr/5.4.0/avrxmega6\libgcc.a(_muluhisi3.o)
 .text.libgcc.div
                0x00000000        0x0 c:/program files (x86)/atmel/studio/7.0/toolchain/avr8/avr8-gnu-toolchain/bin/../lib/gcc/avr/5.4.0/avrxmega6\libgcc.a(_muluhisi3.o)
 .text.libgcc   0x00000000        0x0 c:/program files (x86)/atmel/studio/7.0/toolchain/avr8/avr8-gnu-toolchain/bin/../lib/gcc/avr/5.4.0/avrxmega6\libgcc.a(_muluhisi3.o)
 .text.libgcc.prologue
                0x00000000        0x0 c:/program files (x86)/atmel/studio/7.0/toolchain/avr8/avr8-gnu-toolchain/bin/../lib/gcc/avr/5.4.0/avrxmega6\libgcc.a(_muluhisi3.o)
 .text.libgcc.builtins
                0x00000000        0x0 c:/program files (x86)/atmel/studio/7.0/toolchain/avr8/avr8-gnu-toolchain/bin/../lib/gcc/avr/5.4.0/avrxmega6\libgcc.a(_muluhisi3.o)
 .text.libgcc.fmul
                0x00000000        0x0 c:/program files (x86)/atmel/studio/7.0/toolchain/avr8/avr8-gnu-toolchain/bin/../lib/gcc/avr/5.4.0/avrxmega6\libgcc.a(_muluhisi3.o)
 .text.libgcc.fixed
                0x00000000        0x0 c:/program files (x86)/atmel/studio/7.0/toolchain/avr8/avr8-gnu-toolchain/bin/../lib/gcc/avr/5.4.0/avrxmega6\libgcc.a(_muluhisi3.o)
 .text          0x00000000        0x0 c:/program files (x86)/atmel/studio/7.0/toolchain/avr8/avr8-gnu-toolchain/bin/../lib/gcc/avr/5.4.0/avrxmega6\libgcc.a(_muldi3.o)
 .data          0x00000000        0x0 c:/program files (x86)/atmel/studio/7.0/toolchain/avr8/avr8-gnu-toolchain/bin/../lib/gcc/avr/5.4.0/avrxmega6\libgcc.a(_muldi3.o)
 .bss           0x00000000        0x0 c:/program files (x86)/atmel/studio/7.0/toolchain/avr8/avr8-gnu-toolchain/bin/../lib/gcc/avr/5.4.0/avrxmega6\libgcc.a(_muldi3.o)
 .text.libgcc.div
                0x00000000        0x0 c:/program files (x86)/atmel/studio/7.0/toolchain/avr8/avr8-gnu-toolchain/bin/../lib/gcc/avr/5.4.0/avrxmega6\libgcc.a(_muldi3.o)
 .text.libgcc   0x00000000        0x0 c:/program files (x86)/atmel/studio/7.0/toolchain/avr8/avr8-gnu-toolchain/bin/../lib/gcc/avr/5.4.0/avrxmega6\libgcc.a(_muldi3.o)
 .text.libgcc.prologue
                0x00000000        0x0 c:/program files (x86)/atmel/studio/7.0/toolchain/avr8/avr8-gnu-toolchain/bin/../lib/gcc/avr/5.4.0/avrxmega6\libgcc.a(_muldi3.o)
 .text.libgcc.builtins
                0x00000000        0x0 c:/program files (x86)/atmel/studio/7.0/toolchain/avr8/avr8-gnu-toolchain/bin/../lib/gcc/avr/5.4.0/avrxmega6\libgcc.a(_muldi3.o)
 .text.libgcc.fmul
                0x00000000        0x0 c:/program files (x86)/atmel/studio/7.0/toolchain/avr8/avr8-gnu-toolchain/bin/../lib/gcc/avr/5.4.0/avrxmega6\libgcc.a(_muldi3.o)
 .text.libgcc.fixed
                0x00000000        0x0 c:/program files (x86)/atmel/studio/7.0/toolchain/avr8/avr8-gnu-toolchain/bin/../lib/gcc/avr/5.4.0/avrxmega6\libgcc.a(_muldi3.o)
 .text          0x00000000        0x0 c:/program files (x86)/atmel/studio/7.0/toolchain/avr8/avr8-gnu-toolchain/bin/../lib/gcc/avr/5.4.0/avrxmega6\libgcc.a(_muldi3_6.o)
 .data          0x00000000        0x0 c:/program files (x86)/atmel/studio/7.0/toolchain/avr8/avr8-gnu-toolchain/bin/../lib/gcc/avr/5.4.0/avrxmega6\libgcc.a(_muldi3_6.o)
 .bss           0x00000000        0x0 c:/program files (x86)/atmel/studio/7.0/toolchain/avr8/avr8-gnu-toolchain/bin/../lib/gcc/avr/5.4.0/avrxmega6\libgcc.a(_muldi3_6.o)
 .text.libgcc.div
                0x00000000        0x0 c:/program files (x86)/atmel/studio/7.0/toolchain/avr8/avr8-gnu-toolchain/bin/../lib/gcc/avr/5.4.0/avrxmega6\libgcc.a(_muldi3_6.o)
 .text.libgcc   0x00000000        0x0 c:/program files (x86)/atmel/studio/7.0/toolchain/avr8/avr8-gnu-toolchain/bin/../lib/gcc/avr/5.4.0/avrxmega6\libgcc.a(_muldi3_6.o)
 .text.libgcc.prologue
                0x00000000        0x0 c:/program files (x86)/atmel/studio/7.0/toolchain/avr8/avr8-gnu-toolchain/bin/../lib/gcc/avr/5.4.0/avrxmega6\libgcc.a(_muldi3_6.o)
 .text.libgcc.builtins
                0x00000000        0x0 c:/program files (x86)/atmel/studio/7.0/toolchain/avr8/avr8-gnu-toolchain/bin/../lib/gcc/avr/5.4.0/avrxmega6\libgcc.a(_muldi3_6.o)
 .text.libgcc.fmul
                0x00000000        0x0 c:/program files (x86)/atmel/studio/7.0/toolchain/avr8/avr8-gnu-toolchain/bin/../lib/gcc/avr/5.4.0/avrxmega6\libgcc.a(_muldi3_6.o)
 .text.libgcc.fixed
                0x00000000        0x0 c:/program files (x86)/atmel/studio/7.0/toolchain/avr8/avr8-gnu-toolchain/bin/../lib/gcc/avr/5.4.0/avrxmega6\libgcc.a(_muldi3_6.o)
 .text          0x00000000        0x0 c:/program files (x86)/atmel/studio/7.0/toolchain/avr8/avr8-gnu-toolchain/bin/../lib/gcc/avr/5.4.0/avrxmega6\libgcc.a(_mulsidi3.o)
 .data          0x00000000        0x0 c:/program files (x86)/atmel/studio/7.0/toolchain/avr8/avr8-gnu-toolchain/bin/../lib/gcc/avr/5.4.0/avrxmega6\libgcc.a(_mulsidi3.o)
 .bss           0x00000000        0x0 c:/program files (x86)/atmel/studio/7.0/toolchain/avr8/avr8-gnu-toolchain/bin/../lib/gcc/avr/5.4.0/avrxmega6\libgcc.a(_mulsidi3.o)
 .text.libgcc.div
                0x00000000        0x0 c:/program files (x86)/atmel/studio/7.0/toolchain/avr8/avr8-gnu-toolchain/bin/../lib/gcc/avr/5.4.0/avrxmega6\libgcc.a(_mulsidi3.o)
 .text.libgcc   0x00000000        0x0 c:/program files (x86)/atmel/studio/7.0/toolchain/avr8/avr8-gnu-toolchain/bin/../lib/gcc/avr/5.4.0/avrxmega6\libgcc.a(_mulsidi3.o)
 .text.libgcc.prologue
                0x00000000        0x0 c:/program files (x86)/atmel/studio/7.0/toolchain/avr8/avr8-gnu-toolchain/bin/../lib/gcc/avr/5.4.0/avrxmega6\libgcc.a(_mulsidi3.o)
 .text.libgcc.builtins
                0x00000000        0x0 c:/program files (x86)/atmel/studio/7.0/toolchain/avr8/avr8-gnu-toolchain/bin/../lib/gcc/avr/5.4.0/avrxmega6\libgcc.a(_mulsidi3.o)
 .text.libgcc.fmul
                0x00000000        0x0 c:/program files (x86)/atmel/studio/7.0/toolchain/avr8/avr8-gnu-toolchain/bin/../lib/gcc/avr/5.4.0/avrxmega6\libgcc.a(_mulsidi3.o)
 .text.libgcc.fixed
                0x00000000        0x0 c:/program files (x86)/atmel/studio/7.0/toolchain/avr8/avr8-gnu-toolchain/bin/../lib/gcc/avr/5.4.0/avrxmega6\libgcc.a(_mulsidi3.o)
 .text          0x00000000        0x0 c:/program files (x86)/atmel/studio/7.0/toolchain/avr8/avr8-gnu-toolchain/bin/../lib/gcc/avr/5.4.0/avrxmega6\libgcc.a(_umulsidi3.o)
 .data          0x00000000        0x0 c:/program files (x86)/atmel/studio/7.0/toolchain/avr8/avr8-gnu-toolchain/bin/../lib/gcc/avr/5.4.0/avrxmega6\libgcc.a(_umulsidi3.o)
 .bss           0x00000000        0x0 c:/program files (x86)/atmel/studio/7.0/toolchain/avr8/avr8-gnu-toolchain/bin/../lib/gcc/avr/5.4.0/avrxmega6\libgcc.a(_umulsidi3.o)
 .text.libgcc.div
                0x00000000        0x0 c:/program files (x86)/atmel/studio/7.0/toolchain/avr8/avr8-gnu-toolchain/bin/../lib/gcc/avr/5.4.0/avrxmega6\libgcc.a(_umulsidi3.o)
 .text.libgcc   0x00000000        0x0 c:/program files (x86)/atmel/studio/7.0/toolchain/avr8/avr8-gnu-toolchain/bin/../lib/gcc/avr/5.4.0/avrxmega6\libgcc.a(_umulsidi3.o)
 .text.libgcc.prologue
                0x00000000        0x0 c:/program files (x86)/atmel/studio/7.0/toolchain/avr8/avr8-gnu-toolchain/bin/../lib/gcc/avr/5.4.0/avrxmega6\libgcc.a(_umulsidi3.o)
 .text.libgcc.builtins
                0x00000000        0x0 c:/program files (x86)/atmel/studio/7.0/toolchain/avr8/avr8-gnu-toolchain/bin/../lib/gcc/avr/5.4.0/avrxmega6\libgcc.a(_umulsidi3.o)
 .text.libgcc.fmul
                0x00000000        0x0 c:/program files (x86)/atmel/studio/7.0/toolchain/avr8/avr8-gnu-toolchain/bin/../lib/gcc/avr/5.4.0/avrxmega6\libgcc.a(_umulsidi3.o)
 .text.libgcc.fixed
                0x00000000        0x0 c:/program files (x86)/atmel/studio/7.0/toolchain/avr8/avr8-gnu-toolchain/bin/../lib/gcc/avr/5.4.0/avrxmega6\libgcc.a(_umulsidi3.o)
 .text          0x00000000        0x0 c:/program files (x86)/atmel/studio/7.0/toolchain/avr8/avr8-gnu-toolchain/bin/../lib/gcc/avr/5.4.0/avrxmega6\libgcc.a(_divdi3.o)
 .data          0x00000000        0x0 c:/program files (x86)/atmel/studio/7.0/toolchain/avr8/avr8-gnu-toolchain/bin/../lib/gcc/avr/5.4.0/avrxmega6\libgcc.a(_divdi3.o)
 .bss           0x00000000        0x0 c:/program files (x86)/atmel/studio/7.0/toolchain/avr8/avr8-gnu-toolchain/bin/../lib/gcc/avr/5.4.0/avrxmega6\libgcc.a(_divdi3.o)
 .text.libgcc.mul
                0x00000000        0x0 c:/program files (x86)/atmel/studio/7.0/toolchain/avr8/avr8-gnu-toolchain/bin/../lib/gcc/avr/5.4.0/avrxmega6\libgcc.a(_divdi3.o)
 .text.libgcc   0x00000000        0x0 c:/program files (x86)/atmel/studio/7.0/toolchain/avr8/avr8-gnu-toolchain/bin/../lib/gcc/avr/5.4.0/avrxmega6\libgcc.a(_divdi3.o)
 .text.libgcc.prologue
                0x00000000        0x0 c:/program files (x86)/atmel/studio/7.0/toolchain/avr8/avr8-gnu-toolchain/bin/../lib/gcc/avr/5.4.0/avrxmega6\libgcc.a(_divdi3.o)
 .text.libgcc.builtins
                0x00000000        0x0 c:/program files (x86)/atmel/studio/7.0/toolchain/avr8/avr8-gnu-toolchain/bin/../lib/gcc/avr/5.4.0/avrxmega6\libgcc.a(_divdi3.o)
 .text.libgcc.fmul
                0x00000000        0x0 c:/program files (x86)/atmel/studio/7.0/toolchain/avr8/avr8-gnu-toolchain/bin/../lib/gcc/avr/5.4.0/avrxmega6\libgcc.a(_divdi3.o)
 .text.libgcc.fixed
                0x00000000        0x0 c:/program files (x86)/atmel/studio/7.0/toolchain/avr8/avr8-gnu-toolchain/bin/../lib/gcc/avr/5.4.0/avrxmega6\libgcc.a(_divdi3.o)
 .text          0x00000000        0x0 c:/program files (x86)/atmel/studio/7.0/toolchain/avr8/avr8-gnu-toolchain/bin/../lib/gcc/avr/5.4.0/avrxmega6\libgcc.a(_udivdi3.o)
 .data          0x00000000        0x0 c:/program files (x86)/atmel/studio/7.0/toolchain/avr8/avr8-gnu-toolchain/bin/../lib/gcc/avr/5.4.0/avrxmega6\libgcc.a(_udivdi3.o)
 .bss           0x00000000        0x0 c:/program files (x86)/atmel/studio/7.0/toolchain/avr8/avr8-gnu-toolchain/bin/../lib/gcc/avr/5.4.0/avrxmega6\libgcc.a(_udivdi3.o)
 .text.libgcc.mul
                0x00000000        0x0 c:/program files (x86)/atmel/studio/7.0/toolchain/avr8/avr8-gnu-toolchain/bin/../lib/gcc/avr/5.4.0/avrxmega6\libgcc.a(_udivdi3.o)
 .text.libgcc   0x00000000        0x0 c:/program files (x86)/atmel/studio/7.0/toolchain/avr8/avr8-gnu-toolchain/bin/../lib/gcc/avr/5.4.0/avrxmega6\libgcc.a(_udivdi3.o)
 .text.libgcc.prologue
                0x00000000        0x0 c:/program files (x86)/atmel/studio/7.0/toolchain/avr8/avr8-gnu-toolchain/bin/../lib/gcc/avr/5.4.0/avrxmega6\libgcc.a(_udivdi3.o)
 .text.libgcc.builtins
                0x00000000        0x0 c:/program files (x86)/atmel/studio/7.0/toolchain/avr8/avr8-gnu-toolchain/bin/../lib/gcc/avr/5.4.0/avrxmega6\libgcc.a(_udivdi3.o)
 .text.libgcc.fmul
                0x00000000        0x0 c:/program files (x86)/atmel/studio/7.0/toolchain/avr8/avr8-gnu-toolchain/bin/../lib/gcc/avr/5.4.0/avrxmega6\libgcc.a(_udivdi3.o)
 .text.libgcc.fixed
                0x00000000        0x0 c:/program files (x86)/atmel/studio/7.0/toolchain/avr8/avr8-gnu-toolchain/bin/../lib/gcc/avr/5.4.0/avrxmega6\libgcc.a(_udivdi3.o)
 .text          0x00000000        0x0 c:/program files (x86)/atmel/studio/7.0/toolchain/avr8/avr8-gnu-toolchain/bin/../lib/gcc/avr/5.4.0/avrxmega6\libgcc.a(_udivmod64.o)
 .data          0x00000000        0x0 c:/program files (x86)/atmel/studio/7.0/toolchain/avr8/avr8-gnu-toolchain/bin/../lib/gcc/avr/5.4.0/avrxmega6\libgcc.a(_udivmod64.o)
 .bss           0x00000000        0x0 c:/program files (x86)/atmel/studio/7.0/toolchain/avr8/avr8-gnu-toolchain/bin/../lib/gcc/avr/5.4.0/avrxmega6\libgcc.a(_udivmod64.o)
 .text.libgcc.mul
                0x00000000        0x0 c:/program files (x86)/atmel/studio/7.0/toolchain/avr8/avr8-gnu-toolchain/bin/../lib/gcc/avr/5.4.0/avrxmega6\libgcc.a(_udivmod64.o)
 .text.libgcc   0x00000000        0x0 c:/program files (x86)/atmel/studio/7.0/toolchain/avr8/avr8-gnu-toolchain/bin/../lib/gcc/avr/5.4.0/avrxmega6\libgcc.a(_udivmod64.o)
 .text.libgcc.prologue
                0x00000000        0x0 c:/program files (x86)/atmel/studio/7.0/toolchain/avr8/avr8-gnu-toolchain/bin/../lib/gcc/avr/5.4.0/avrxmega6\libgcc.a(_udivmod64.o)
 .text.libgcc.builtins
                0x00000000        0x0 c:/program files (x86)/atmel/studio/7.0/toolchain/avr8/avr8-gnu-toolchain/bin/../lib/gcc/avr/5.4.0/avrxmega6\libgcc.a(_udivmod64.o)
 .text.libgcc.fmul
                0x00000000        0x0 c:/program files (x86)/atmel/studio/7.0/toolchain/avr8/avr8-gnu-toolchain/bin/../lib/gcc/avr/5.4.0/avrxmega6\libgcc.a(_udivmod64.o)
 .text.libgcc.fixed
                0x00000000        0x0 c:/program files (x86)/atmel/studio/7.0/toolchain/avr8/avr8-gnu-toolchain/bin/../lib/gcc/avr/5.4.0/avrxmega6\libgcc.a(_udivmod64.o)
 .text          0x00000000        0x0 c:/program files (x86)/atmel/studio/7.0/toolchain/avr8/avr8-gnu-toolchain/bin/../lib/gcc/avr/5.4.0/avrxmega6\libgcc.a(_negdi2.o)
 .data          0x00000000        0x0 c:/program files (x86)/atmel/studio/7.0/toolchain/avr8/avr8-gnu-toolchain/bin/../lib/gcc/avr/5.4.0/avrxmega6\libgcc.a(_negdi2.o)
 .bss           0x00000000        0x0 c:/program files (x86)/atmel/studio/7.0/toolchain/avr8/avr8-gnu-toolchain/bin/../lib/gcc/avr/5.4.0/avrxmega6\libgcc.a(_negdi2.o)
 .text.libgcc.mul
                0x00000000        0x0 c:/program files (x86)/atmel/studio/7.0/toolchain/avr8/avr8-gnu-toolchain/bin/../lib/gcc/avr/5.4.0/avrxmega6\libgcc.a(_negdi2.o)
 .text.libgcc.div
                0x00000000        0x0 c:/program files (x86)/atmel/studio/7.0/toolchain/avr8/avr8-gnu-toolchain/bin/../lib/gcc/avr/5.4.0/avrxmega6\libgcc.a(_negdi2.o)
 .text.libgcc.prologue
                0x00000000        0x0 c:/program files (x86)/atmel/studio/7.0/toolchain/avr8/avr8-gnu-toolchain/bin/../lib/gcc/avr/5.4.0/avrxmega6\libgcc.a(_negdi2.o)
 .text.libgcc.builtins
                0x00000000        0x0 c:/program files (x86)/atmel/studio/7.0/toolchain/avr8/avr8-gnu-toolchain/bin/../lib/gcc/avr/5.4.0/avrxmega6\libgcc.a(_negdi2.o)
 .text.libgcc.fmul
                0x00000000        0x0 c:/program files (x86)/atmel/studio/7.0/toolchain/avr8/avr8-gnu-toolchain/bin/../lib/gcc/avr/5.4.0/avrxmega6\libgcc.a(_negdi2.o)
 .text.libgcc.fixed
                0x00000000        0x0 c:/program files (x86)/atmel/studio/7.0/toolchain/avr8/avr8-gnu-toolchain/bin/../lib/gcc/avr/5.4.0/avrxmega6\libgcc.a(_negdi2.o)
 .text          0x00000000        0x0 c:/program files (x86)/atmel/studio/7.0/toolchain/avr8/avr8-gnu-toolchain/bin/../lib/gcc/avr/5.4.0/avrxmega6\libgcc.a(_prologue.o)
 .data          0x00000000        0x0 c:/program files (x86)/atmel/studio/7.0/toolchain/avr8/avr8-gnu-toolchain/bin/../lib/gcc/avr/5.4.0/avrxmega6\libgcc.a(_prologue.o)
 .bss           0x00000000        0x0 c:/program files (x86)/atmel/studio/7.0/toolchain/avr8/avr8-gnu-toolchain/bin/../lib/gcc/avr/5.4.0/avrxmega6\libgcc.a(_prologue.o)
 .text.libgcc.mul
                0x00000000        0x0 c:/program files (x86)/atmel/studio/7.0/toolchain/avr8/avr8-gnu-toolchain/bin/../lib/gcc/avr/5.4.0/avrxmega6\libgcc.a(_prologue.o)
 .text.libgcc.div
                0x00000000        0x0 c:/program files (x86)/atmel/studio/7.0/toolchain/avr8/avr8-gnu-toolchain/bin/../lib/gcc/avr/5.4.0/avrxmega6\libgcc.a(_prologue.o)
 .text.libgcc   0x00000000        0x0 c:/program files (x86)/atmel/studio/7.0/toolchain/avr8/avr8-gnu-toolchain/bin/../lib/gcc/avr/5.4.0/avrxmega6\libgcc.a(_prologue.o)
 .text.libgcc.builtins
                0x00000000        0x0 c:/program files (x86)/atmel/studio/7.0/toolchain/avr8/avr8-gnu-toolchain/bin/../lib/gcc/avr/5.4.0/avrxmega6\libgcc.a(_prologue.o)
 .text.libgcc.fmul
                0x00000000        0x0 c:/program files (x86)/atmel/studio/7.0/toolchain/avr8/avr8-gnu-toolchain/bin/../lib/gcc/avr/5.4.0/avrxmega6\libgcc.a(_prologue.o)
 .text.libgcc.fixed
                0x00000000        0x0 c:/program files (x86)/atmel/studio/7.0/toolchain/avr8/avr8-gnu-toolchain/bin/../lib/gcc/avr/5.4.0/avrxmega6\libgcc.a(_prologue.o)
 .text          0x00000000        0x0 c:/program files (x86)/atmel/studio/7.0/toolchain/avr8/avr8-gnu-toolchain/bin/../lib/gcc/avr/5.4.0/avrxmega6\libgcc.a(_epilogue.o)
 .data          0x00000000        0x0 c:/program files (x86)/atmel/studio/7.0/toolchain/avr8/avr8-gnu-toolchain/bin/../lib/gcc/avr/5.4.0/avrxmega6\libgcc.a(_epilogue.o)
 .bss           0x00000000        0x0 c:/program files (x86)/atmel/studio/7.0/toolchain/avr8/avr8-gnu-toolchain/bin/../lib/gcc/avr/5.4.0/avrxmega6\libgcc.a(_epilogue.o)
 .text.libgcc.mul
                0x00000000        0x0 c:/program files (x86)/atmel/studio/7.0/toolchain/avr8/avr8-gnu-toolchain/bin/../lib/gcc/avr/5.4.0/avrxmega6\libgcc.a(_epilogue.o)
 .text.libgcc.div
                0x00000000        0x0 c:/program files (x86)/atmel/studio/7.0/toolchain/avr8/avr8-gnu-toolchain/bin/../lib/gcc/avr/5.4.0/avrxmega6\libgcc.a(_epilogue.o)
 .text.libgcc   0x00000000        0x0 c:/program files (x86)/atmel/studio/7.0/toolchain/avr8/avr8-gnu-toolchain/bin/../lib/gcc/avr/5.4.0/avrxmega6\libgcc.a(_epilogue.o)
 .text.libgcc.builtins
                0x00000000        0x0 c:/program files (x86)/atmel/studio/7.0/toolchain/avr8/avr8-gnu-toolchain/bin/../lib/gcc/avr/5.4.0/avrxmega6\libgcc.a(_epilogue.o)
 .text.libgcc.fmul
                0x00000000        0x0 c:/program files (x86)/atmel/studio/7.0/toolchain/avr8/avr8-gnu-toolchain/bin/../lib/gcc/avr/5.4.0/avrxmega6\libgcc.a(_epilogue.o)
 .text.libgcc.fixed
                0x00000000        0x0 c:/program files (x86)/atmel/studio/7.0/toolchain/avr8/avr8-gnu-toolchain/bin/../lib/gcc/avr/5.4.0/avrxmega6\libgcc.a(_epilogue.o)
 .text          0x00000000        0x0 c:/program files (x86)/atmel/studio/7.0/toolchain/avr8/avr8-gnu-toolchain/bin/../lib/gcc/avr/5.4.0/avrxmega6\libgcc.a(_ashldi3.o)
 .data          0x00000000        0x0 c:/program files (x86)/atmel/studio/7.0/toolchain/avr8/avr8-gnu-toolchain/bin/../lib/gcc/avr/5.4.0/avrxmega6\libgcc.a(_ashldi3.o)
 .bss           0x00000000        0x0 c:/program files (x86)/atmel/studio/7.0/toolchain/avr8/avr8-gnu-toolchain/bin/../lib/gcc/avr/5.4.0/avrxmega6\libgcc.a(_ashldi3.o)
 .text.libgcc.mul
                0x00000000        0x0 c:/program files (x86)/atmel/studio/7.0/toolchain/avr8/avr8-gnu-toolchain/bin/../lib/gcc/avr/5.4.0/avrxmega6\libgcc.a(_ashldi3.o)
 .text.libgcc.div
                0x00000000        0x0 c:/program files (x86)/atmel/studio/7.0/toolchain/avr8/avr8-gnu-toolchain/bin/../lib/gcc/avr/5.4.0/avrxmega6\libgcc.a(_ashldi3.o)
 .text.libgcc   0x00000000        0x0 c:/program files (x86)/atmel/studio/7.0/toolchain/avr8/avr8-gnu-toolchain/bin/../lib/gcc/avr/5.4.0/avrxmega6\libgcc.a(_ashldi3.o)
 .text.libgcc.prologue
                0x00000000        0x0 c:/program files (x86)/atmel/studio/7.0/toolchain/avr8/avr8-gnu-toolchain/bin/../lib/gcc/avr/5.4.0/avrxmega6\libgcc.a(_ashldi3.o)
 .text.libgcc.fmul
                0x00000000        0x0 c:/program files (x86)/atmel/studio/7.0/toolchain/avr8/avr8-gnu-toolchain/bin/../lib/gcc/avr/5.4.0/avrxmega6\libgcc.a(_ashldi3.o)
 .text.libgcc.fixed
                0x00000000        0x0 c:/program files (x86)/atmel/studio/7.0/toolchain/avr8/avr8-gnu-toolchain/bin/../lib/gcc/avr/5.4.0/avrxmega6\libgcc.a(_ashldi3.o)
 .text          0x00000000        0x0 c:/program files (x86)/atmel/studio/7.0/toolchain/avr8/avr8-gnu-toolchain/bin/../lib/gcc/avr/5.4.0/avrxmega6\libgcc.a(_ashrdi3.o)
 .data          0x00000000        0x0 c:/program files (x86)/atmel/studio/7.0/toolchain/avr8/avr8-gnu-toolchain/bin/../lib/gcc/avr/5.4.0/avrxmega6\libgcc.a(_ashrdi3.o)
 .bss           0x00000000        0x0 c:/program files (x86)/atmel/studio/7.0/toolchain/avr8/avr8-gnu-toolchain/bin/../lib/gcc/avr/5.4.0/avrxmega6\libgcc.a(_ashrdi3.o)
 .text.libgcc.mul
                0x00000000        0x0 c:/program files (x86)/atmel/studio/7.0/toolchain/avr8/avr8-gnu-toolchain/bin/../lib/gcc/avr/5.4.0/avrxmega6\libgcc.a(_ashrdi3.o)
 .text.libgcc.div
                0x00000000        0x0 c:/program files (x86)/atmel/studio/7.0/toolchain/avr8/avr8-gnu-toolchain/bin/../lib/gcc/avr/5.4.0/avrxmega6\libgcc.a(_ashrdi3.o)
 .text.libgcc   0x00000000        0x0 c:/program files (x86)/atmel/studio/7.0/toolchain/avr8/avr8-gnu-toolchain/bin/../lib/gcc/avr/5.4.0/avrxmega6\libgcc.a(_ashrdi3.o)
 .text.libgcc.prologue
                0x00000000        0x0 c:/program files (x86)/atmel/studio/7.0/toolchain/avr8/avr8-gnu-toolchain/bin/../lib/gcc/avr/5.4.0/avrxmega6\libgcc.a(_ashrdi3.o)
 .text.libgcc.fmul
                0x00000000        0x0 c:/program files (x86)/atmel/studio/7.0/toolchain/avr8/avr8-gnu-toolchain/bin/../lib/gcc/avr/5.4.0/avrxmega6\libgcc.a(_ashrdi3.o)
 .text.libgcc.fixed
                0x00000000        0x0 c:/program files (x86)/atmel/studio/7.0/toolchain/avr8/avr8-gnu-toolchain/bin/../lib/gcc/avr/5.4.0/avrxmega6\libgcc.a(_ashrdi3.o)
 .text          0x00000000        0x0 c:/program files (x86)/atmel/studio/7.0/toolchain/avr8/avr8-gnu-toolchain/bin/../lib/gcc/avr/5.4.0/avrxmega6\libgcc.a(_adddi3.o)
 .data          0x00000000        0x0 c:/program files (x86)/atmel/studio/7.0/toolchain/avr8/avr8-gnu-toolchain/bin/../lib/gcc/avr/5.4.0/avrxmega6\libgcc.a(_adddi3.o)
 .bss           0x00000000        0x0 c:/program files (x86)/atmel/studio/7.0/toolchain/avr8/avr8-gnu-toolchain/bin/../lib/gcc/avr/5.4.0/avrxmega6\libgcc.a(_adddi3.o)
 .text.libgcc.mul
                0x00000000        0x0 c:/program files (x86)/atmel/studio/7.0/toolchain/avr8/avr8-gnu-toolchain/bin/../lib/gcc/avr/5.4.0/avrxmega6\libgcc.a(_adddi3.o)
 .text.libgcc.div
                0x00000000        0x0 c:/program files (x86)/atmel/studio/7.0/toolchain/avr8/avr8-gnu-toolchain/bin/../lib/gcc/avr/5.4.0/avrxmega6\libgcc.a(_adddi3.o)
 .text.libgcc.prologue
                0x00000000        0x0 c:/program files (x86)/atmel/studio/7.0/toolchain/avr8/avr8-gnu-toolchain/bin/../lib/gcc/avr/5.4.0/avrxmega6\libgcc.a(_adddi3.o)
 .text.libgcc.builtins
                0x00000000        0x0 c:/program files (x86)/atmel/studio/7.0/toolchain/avr8/avr8-gnu-toolchain/bin/../lib/gcc/avr/5.4.0/avrxmega6\libgcc.a(_adddi3.o)
 .text.libgcc.fmul
                0x00000000        0x0 c:/program files (x86)/atmel/studio/7.0/toolchain/avr8/avr8-gnu-toolchain/bin/../lib/gcc/avr/5.4.0/avrxmega6\libgcc.a(_adddi3.o)
 .text.libgcc.fixed
                0x00000000        0x0 c:/program files (x86)/atmel/studio/7.0/toolchain/avr8/avr8-gnu-toolchain/bin/../lib/gcc/avr/5.4.0/avrxmega6\libgcc.a(_adddi3.o)
 .text          0x00000000        0x0 c:/program files (x86)/atmel/studio/7.0/toolchain/avr8/avr8-gnu-toolchain/bin/../lib/gcc/avr/5.4.0/avrxmega6\libgcc.a(_adddi3_s8.o)
 .data          0x00000000        0x0 c:/program files (x86)/atmel/studio/7.0/toolchain/avr8/avr8-gnu-toolchain/bin/../lib/gcc/avr/5.4.0/avrxmega6\libgcc.a(_adddi3_s8.o)
 .bss           0x00000000        0x0 c:/program files (x86)/atmel/studio/7.0/toolchain/avr8/avr8-gnu-toolchain/bin/../lib/gcc/avr/5.4.0/avrxmega6\libgcc.a(_adddi3_s8.o)
 .text.libgcc.mul
                0x00000000        0x0 c:/program files (x86)/atmel/studio/7.0/toolchain/avr8/avr8-gnu-toolchain/bin/../lib/gcc/avr/5.4.0/avrxmega6\libgcc.a(_adddi3_s8.o)
 .text.libgcc.div
                0x00000000        0x0 c:/program files (x86)/atmel/studio/7.0/toolchain/avr8/avr8-gnu-toolchain/bin/../lib/gcc/avr/5.4.0/avrxmega6\libgcc.a(_adddi3_s8.o)
 .text.libgcc.prologue
                0x00000000        0x0 c:/program files (x86)/atmel/studio/7.0/toolchain/avr8/avr8-gnu-toolchain/bin/../lib/gcc/avr/5.4.0/avrxmega6\libgcc.a(_adddi3_s8.o)
 .text.libgcc.builtins
                0x00000000        0x0 c:/program files (x86)/atmel/studio/7.0/toolchain/avr8/avr8-gnu-toolchain/bin/../lib/gcc/avr/5.4.0/avrxmega6\libgcc.a(_adddi3_s8.o)
 .text.libgcc.fmul
                0x00000000        0x0 c:/program files (x86)/atmel/studio/7.0/toolchain/avr8/avr8-gnu-toolchain/bin/../lib/gcc/avr/5.4.0/avrxmega6\libgcc.a(_adddi3_s8.o)
 .text.libgcc.fixed
                0x00000000        0x0 c:/program files (x86)/atmel/studio/7.0/toolchain/avr8/avr8-gnu-toolchain/bin/../lib/gcc/avr/5.4.0/avrxmega6\libgcc.a(_adddi3_s8.o)
 .text          0x00000000        0x0 c:/program files (x86)/atmel/studio/7.0/toolchain/avr8/avr8-gnu-toolchain/bin/../lib/gcc/avr/5.4.0/avrxmega6\libgcc.a(_subdi3.o)
 .data          0x00000000        0x0 c:/program files (x86)/atmel/studio/7.0/toolchain/avr8/avr8-gnu-toolchain/bin/../lib/gcc/avr/5.4.0/avrxmega6\libgcc.a(_subdi3.o)
 .bss           0x00000000        0x0 c:/program files (x86)/atmel/studio/7.0/toolchain/avr8/avr8-gnu-toolchain/bin/../lib/gcc/avr/5.4.0/avrxmega6\libgcc.a(_subdi3.o)
 .text.libgcc.mul
                0x00000000        0x0 c:/program files (x86)/atmel/studio/7.0/toolchain/avr8/avr8-gnu-toolchain/bin/../lib/gcc/avr/5.4.0/avrxmega6\libgcc.a(_subdi3.o)
 .text.libgcc.div
                0x00000000        0x0 c:/program files (x86)/atmel/studio/7.0/toolchain/avr8/avr8-gnu-toolchain/bin/../lib/gcc/avr/5.4.0/avrxmega6\libgcc.a(_subdi3.o)
 .text.libgcc.prologue
                0x00000000        0x0 c:/program files (x86)/atmel/studio/7.0/toolchain/avr8/avr8-gnu-toolchain/bin/../lib/gcc/avr/5.4.0/avrxmega6\libgcc.a(_subdi3.o)
 .text.libgcc.builtins
                0x00000000        0x0 c:/program files (x86)/atmel/studio/7.0/toolchain/avr8/avr8-gnu-toolchain/bin/../lib/gcc/avr/5.4.0/avrxmega6\libgcc.a(_subdi3.o)
 .text.libgcc.fmul
                0x00000000        0x0 c:/program files (x86)/atmel/studio/7.0/toolchain/avr8/avr8-gnu-toolchain/bin/../lib/gcc/avr/5.4.0/avrxmega6\libgcc.a(_subdi3.o)
 .text.libgcc.fixed
                0x00000000        0x0 c:/program files (x86)/atmel/studio/7.0/toolchain/avr8/avr8-gnu-toolchain/bin/../lib/gcc/avr/5.4.0/avrxmega6\libgcc.a(_subdi3.o)
 .text          0x00000000        0x0 c:/program files (x86)/atmel/studio/7.0/toolchain/avr8/avr8-gnu-toolchain/bin/../lib/gcc/avr/5.4.0/avrxmega6\libgcc.a(_cmpdi2_s8.o)
 .data          0x00000000        0x0 c:/program files (x86)/atmel/studio/7.0/toolchain/avr8/avr8-gnu-toolchain/bin/../lib/gcc/avr/5.4.0/avrxmega6\libgcc.a(_cmpdi2_s8.o)
 .bss           0x00000000        0x0 c:/program files (x86)/atmel/studio/7.0/toolchain/avr8/avr8-gnu-toolchain/bin/../lib/gcc/avr/5.4.0/avrxmega6\libgcc.a(_cmpdi2_s8.o)
 .text.libgcc.mul
                0x00000000        0x0 c:/program files (x86)/atmel/studio/7.0/toolchain/avr8/avr8-gnu-toolchain/bin/../lib/gcc/avr/5.4.0/avrxmega6\libgcc.a(_cmpdi2_s8.o)
 .text.libgcc.div
                0x00000000        0x0 c:/program files (x86)/atmel/studio/7.0/toolchain/avr8/avr8-gnu-toolchain/bin/../lib/gcc/avr/5.4.0/avrxmega6\libgcc.a(_cmpdi2_s8.o)
 .text.libgcc.prologue
                0x00000000        0x0 c:/program files (x86)/atmel/studio/7.0/toolchain/avr8/avr8-gnu-toolchain/bin/../lib/gcc/avr/5.4.0/avrxmega6\libgcc.a(_cmpdi2_s8.o)
 .text.libgcc.builtins
                0x00000000        0x0 c:/program files (x86)/atmel/studio/7.0/toolchain/avr8/avr8-gnu-toolchain/bin/../lib/gcc/avr/5.4.0/avrxmega6\libgcc.a(_cmpdi2_s8.o)
 .text.libgcc.fmul
                0x00000000        0x0 c:/program files (x86)/atmel/studio/7.0/toolchain/avr8/avr8-gnu-toolchain/bin/../lib/gcc/avr/5.4.0/avrxmega6\libgcc.a(_cmpdi2_s8.o)
 .text.libgcc.fixed
                0x00000000        0x0 c:/program files (x86)/atmel/studio/7.0/toolchain/avr8/avr8-gnu-toolchain/bin/../lib/gcc/avr/5.4.0/avrxmega6\libgcc.a(_cmpdi2_s8.o)
 .text          0x00000000        0x0 c:/program files (x86)/atmel/studio/7.0/toolchain/avr8/avr8-gnu-toolchain/bin/../lib/gcc/avr/5.4.0/../../../../avr/lib/avrxmega6\libc.a(strtol.o)
 .data          0x00000000        0x0 c:/program files (x86)/atmel/studio/7.0/toolchain/avr8/avr8-gnu-toolchain/bin/../lib/gcc/avr/5.4.0/../../../../avr/lib/avrxmega6\libc.a(strtol.o)
 .bss           0x00000000        0x0 c:/program files (x86)/atmel/studio/7.0/toolchain/avr8/avr8-gnu-toolchain/bin/../lib/gcc/avr/5.4.0/../../../../avr/lib/avrxmega6\libc.a(strtol.o)
 .text          0x00000000        0x0 c:/program files (x86)/atmel/studio/7.0/toolchain/avr8/avr8-gnu-toolchain/bin/../lib/gcc/avr/5.4.0/../../../../avr/lib/avrxmega6\libc.a(atof.o)
 .data          0x00000000        0x0 c:/program files (x86)/atmel/studio/7.0/toolchain/avr8/avr8-gnu-toolchain/bin/../lib/gcc/avr/5.4.0/../../../../avr/lib/avrxmega6\libc.a(atof.o)
 .bss           0x00000000        0x0 c:/program files (x86)/atmel/studio/7.0/toolchain/avr8/avr8-gnu-toolchain/bin/../lib/gcc/avr/5.4.0/../../../../avr/lib/avrxmega6\libc.a(atof.o)
 .text          0x00000000        0x0 c:/program files (x86)/atmel/studio/7.0/toolchain/avr8/avr8-gnu-toolchain/bin/../lib/gcc/avr/5.4.0/../../../../avr/lib/avrxmega6\libc.a(atoi.o)
 .data          0x00000000        0x0 c:/program files (x86)/atmel/studio/7.0/toolchain/avr8/avr8-gnu-toolchain/bin/../lib/gcc/avr/5.4.0/../../../../avr/lib/avrxmega6\libc.a(atoi.o)
 .bss           0x00000000        0x0 c:/program files (x86)/atmel/studio/7.0/toolchain/avr8/avr8-gnu-toolchain/bin/../lib/gcc/avr/5.4.0/../../../../avr/lib/avrxmega6\libc.a(atoi.o)
 .text          0x00000000        0x0 c:/program files (x86)/atmel/studio/7.0/toolchain/avr8/avr8-gnu-toolchain/bin/../lib/gcc/avr/5.4.0/../../../../avr/lib/avrxmega6\libc.a(atol.o)
 .data          0x00000000        0x0 c:/program files (x86)/atmel/studio/7.0/toolchain/avr8/avr8-gnu-toolchain/bin/../lib/gcc/avr/5.4.0/../../../../avr/lib/avrxmega6\libc.a(atol.o)
 .bss           0x00000000        0x0 c:/program files (x86)/atmel/studio/7.0/toolchain/avr8/avr8-gnu-toolchain/bin/../lib/gcc/avr/5.4.0/../../../../avr/lib/avrxmega6\libc.a(atol.o)
 .text          0x00000000        0x0 c:/program files (x86)/atmel/studio/7.0/toolchain/avr8/avr8-gnu-toolchain/bin/../lib/gcc/avr/5.4.0/../../../../avr/lib/avrxmega6\libc.a(ftoa_engine.o)
 .data          0x00000000        0x0 c:/program files (x86)/atmel/studio/7.0/toolchain/avr8/avr8-gnu-toolchain/bin/../lib/gcc/avr/5.4.0/../../../../avr/lib/avrxmega6\libc.a(ftoa_engine.o)
 .bss           0x00000000        0x0 c:/program files (x86)/atmel/studio/7.0/toolchain/avr8/avr8-gnu-toolchain/bin/../lib/gcc/avr/5.4.0/../../../../avr/lib/avrxmega6\libc.a(ftoa_engine.o)
 .text          0x00000000        0x0 c:/program files (x86)/atmel/studio/7.0/toolchain/avr8/avr8-gnu-toolchain/bin/../lib/gcc/avr/5.4.0/../../../../avr/lib/avrxmega6\libc.a(isspace.o)
 .data          0x00000000        0x0 c:/program files (x86)/atmel/studio/7.0/toolchain/avr8/avr8-gnu-toolchain/bin/../lib/gcc/avr/5.4.0/../../../../avr/lib/avrxmega6\libc.a(isspace.o)
 .bss           0x00000000        0x0 c:/program files (x86)/atmel/studio/7.0/toolchain/avr8/avr8-gnu-toolchain/bin/../lib/gcc/avr/5.4.0/../../../../avr/lib/avrxmega6\libc.a(isspace.o)
 .text          0x00000000        0x0 c:/program files (x86)/atmel/studio/7.0/toolchain/avr8/avr8-gnu-toolchain/bin/../lib/gcc/avr/5.4.0/../../../../avr/lib/avrxmega6\libc.a(strcpy_P.o)
 .data          0x00000000        0x0 c:/program files (x86)/atmel/studio/7.0/toolchain/avr8/avr8-gnu-toolchain/bin/../lib/gcc/avr/5.4.0/../../../../avr/lib/avrxmega6\libc.a(strcpy_P.o)
 .bss           0x00000000        0x0 c:/program files (x86)/atmel/studio/7.0/toolchain/avr8/avr8-gnu-toolchain/bin/../lib/gcc/avr/5.4.0/../../../../avr/lib/avrxmega6\libc.a(strcpy_P.o)
 .text          0x00000000        0x0 c:/program files (x86)/atmel/studio/7.0/toolchain/avr8/avr8-gnu-toolchain/bin/../lib/gcc/avr/5.4.0/../../../../avr/lib/avrxmega6\libc.a(strncasecmp_P.o)
 .data          0x00000000        0x0 c:/program files (x86)/atmel/studio/7.0/toolchain/avr8/avr8-gnu-toolchain/bin/../lib/gcc/avr/5.4.0/../../../../avr/lib/avrxmega6\libc.a(strncasecmp_P.o)
 .bss           0x00000000        0x0 c:/program files (x86)/atmel/studio/7.0/toolchain/avr8/avr8-gnu-toolchain/bin/../lib/gcc/avr/5.4.0/../../../../avr/lib/avrxmega6\libc.a(strncasecmp_P.o)
 .text          0x00000000        0x0 c:/program files (x86)/atmel/studio/7.0/toolchain/avr8/avr8-gnu-toolchain/bin/../lib/gcc/avr/5.4.0/../../../../avr/lib/avrxmega6\libc.a(strncmp_P.o)
 .data          0x00000000        0x0 c:/program files (x86)/atmel/studio/7.0/toolchain/avr8/avr8-gnu-toolchain/bin/../lib/gcc/avr/5.4.0/../../../../avr/lib/avrxmega6\libc.a(strncmp_P.o)
 .bss           0x00000000        0x0 c:/program files (x86)/atmel/studio/7.0/toolchain/avr8/avr8-gnu-toolchain/bin/../lib/gcc/avr/5.4.0/../../../../avr/lib/avrxmega6\libc.a(strncmp_P.o)
 .text          0x00000000        0x0 c:/program files (x86)/atmel/studio/7.0/toolchain/avr8/avr8-gnu-toolchain/bin/../lib/gcc/avr/5.4.0/../../../../avr/lib/avrxmega6\libc.a(strnlen_P.o)
 .data          0x00000000        0x0 c:/program files (x86)/atmel/studio/7.0/toolchain/avr8/avr8-gnu-toolchain/bin/../lib/gcc/avr/5.4.0/../../../../avr/lib/avrxmega6\libc.a(strnlen_P.o)
 .bss           0x00000000        0x0 c:/program files (x86)/atmel/studio/7.0/toolchain/avr8/avr8-gnu-toolchain/bin/../lib/gcc/avr/5.4.0/../../../../avr/lib/avrxmega6\libc.a(strnlen_P.o)
 .text          0x00000000        0x0 c:/program files (x86)/atmel/studio/7.0/toolchain/avr8/avr8-gnu-toolchain/bin/../lib/gcc/avr/5.4.0/../../../../avr/lib/avrxmega6\libc.a(strstr_P.o)
 .data          0x00000000        0x0 c:/program files (x86)/atmel/studio/7.0/toolchain/avr8/avr8-gnu-toolchain/bin/../lib/gcc/avr/5.4.0/../../../../avr/lib/avrxmega6\libc.a(strstr_P.o)
 .bss           0x00000000        0x0 c:/program files (x86)/atmel/studio/7.0/toolchain/avr8/avr8-gnu-toolchain/bin/../lib/gcc/avr/5.4.0/../../../../avr/lib/avrxmega6\libc.a(strstr_P.o)
 .text          0x00000000        0x0 c:/program files (x86)/atmel/studio/7.0/toolchain/avr8/avr8-gnu-toolchain/bin/../lib/gcc/avr/5.4.0/../../../../avr/lib/avrxmega6\libc.a(memchr.o)
 .data          0x00000000        0x0 c:/program files (x86)/atmel/studio/7.0/toolchain/avr8/avr8-gnu-toolchain/bin/../lib/gcc/avr/5.4.0/../../../../avr/lib/avrxmega6\libc.a(memchr.o)
 .bss           0x00000000        0x0 c:/program files (x86)/atmel/studio/7.0/toolchain/avr8/avr8-gnu-toolchain/bin/../lib/gcc/avr/5.4.0/../../../../avr/lib/avrxmega6\libc.a(memchr.o)
 .text          0x00000000        0x0 c:/program files (x86)/atmel/studio/7.0/toolchain/avr8/avr8-gnu-toolchain/bin/../lib/gcc/avr/5.4.0/../../../../avr/lib/avrxmega6\libc.a(memcpy.o)
 .data          0x00000000        0x0 c:/program files (x86)/atmel/studio/7.0/toolchain/avr8/avr8-gnu-toolchain/bin/../lib/gcc/avr/5.4.0/../../../../avr/lib/avrxmega6\libc.a(memcpy.o)
 .bss           0x00000000        0x0 c:/program files (x86)/atmel/studio/7.0/toolchain/avr8/avr8-gnu-toolchain/bin/../lib/gcc/avr/5.4.0/../../../../avr/lib/avrxmega6\libc.a(memcpy.o)
 .text          0x00000000        0x0 c:/program files (x86)/atmel/studio/7.0/toolchain/avr8/avr8-gnu-toolchain/bin/../lib/gcc/avr/5.4.0/../../../../avr/lib/avrxmega6\libc.a(strchr.o)
 .data          0x00000000        0x0 c:/program files (x86)/atmel/studio/7.0/toolchain/avr8/avr8-gnu-toolchain/bin/../lib/gcc/avr/5.4.0/../../../../avr/lib/avrxmega6\libc.a(strchr.o)
 .bss           0x00000000        0x0 c:/program files (x86)/atmel/studio/7.0/toolchain/avr8/avr8-gnu-toolchain/bin/../lib/gcc/avr/5.4.0/../../../../avr/lib/avrxmega6\libc.a(strchr.o)
 .text          0x00000000        0x0 c:/program files (x86)/atmel/studio/7.0/toolchain/avr8/avr8-gnu-toolchain/bin/../lib/gcc/avr/5.4.0/../../../../avr/lib/avrxmega6\libc.a(strnlen.o)
 .data          0x00000000        0x0 c:/program files (x86)/atmel/studio/7.0/toolchain/avr8/avr8-gnu-toolchain/bin/../lib/gcc/avr/5.4.0/../../../../avr/lib/avrxmega6\libc.a(strnlen.o)
 .bss           0x00000000        0x0 c:/program files (x86)/atmel/studio/7.0/toolchain/avr8/avr8-gnu-toolchain/bin/../lib/gcc/avr/5.4.0/../../../../avr/lib/avrxmega6\libc.a(strnlen.o)
 .text          0x00000000        0x0 c:/program files (x86)/atmel/studio/7.0/toolchain/avr8/avr8-gnu-toolchain/bin/../lib/gcc/avr/5.4.0/../../../../avr/lib/avrxmega6\libc.a(mulsi10.o)
 .data          0x00000000        0x0 c:/program files (x86)/atmel/studio/7.0/toolchain/avr8/avr8-gnu-toolchain/bin/../lib/gcc/avr/5.4.0/../../../../avr/lib/avrxmega6\libc.a(mulsi10.o)
 .bss           0x00000000        0x0 c:/program files (x86)/atmel/studio/7.0/toolchain/avr8/avr8-gnu-toolchain/bin/../lib/gcc/avr/5.4.0/../../../../avr/lib/avrxmega6\libc.a(mulsi10.o)
 .text          0x00000000        0x0 c:/program files (x86)/atmel/studio/7.0/toolchain/avr8/avr8-gnu-toolchain/bin/../lib/gcc/avr/5.4.0/../../../../avr/lib/avrxmega6\libc.a(mul10.o)
 .data          0x00000000        0x0 c:/program files (x86)/atmel/studio/7.0/toolchain/avr8/avr8-gnu-toolchain/bin/../lib/gcc/avr/5.4.0/../../../../avr/lib/avrxmega6\libc.a(mul10.o)
 .bss           0x00000000        0x0 c:/program files (x86)/atmel/studio/7.0/toolchain/avr8/avr8-gnu-toolchain/bin/../lib/gcc/avr/5.4.0/../../../../avr/lib/avrxmega6\libc.a(mul10.o)
 .text          0x00000000        0x0 c:/program files (x86)/atmel/studio/7.0/toolchain/avr8/avr8-gnu-toolchain/bin/../lib/gcc/avr/5.4.0/../../../../avr/lib/avrxmega6\libc.a(fdevopen.o)
 .data          0x00000000        0x0 c:/program files (x86)/atmel/studio/7.0/toolchain/avr8/avr8-gnu-toolchain/bin/../lib/gcc/avr/5.4.0/../../../../avr/lib/avrxmega6\libc.a(fdevopen.o)
 .bss           0x00000000        0x0 c:/program files (x86)/atmel/studio/7.0/toolchain/avr8/avr8-gnu-toolchain/bin/../lib/gcc/avr/5.4.0/../../../../avr/lib/avrxmega6\libc.a(fdevopen.o)
 .text          0x00000000        0x0 c:/program files (x86)/atmel/studio/7.0/toolchain/avr8/avr8-gnu-toolchain/bin/../lib/gcc/avr/5.4.0/../../../../avr/lib/avrxmega6\libc.a(fputc.o)
 .data          0x00000000        0x0 c:/program files (x86)/atmel/studio/7.0/toolchain/avr8/avr8-gnu-toolchain/bin/../lib/gcc/avr/5.4.0/../../../../avr/lib/avrxmega6\libc.a(fputc.o)
 .bss           0x00000000        0x0 c:/program files (x86)/atmel/studio/7.0/toolchain/avr8/avr8-gnu-toolchain/bin/../lib/gcc/avr/5.4.0/../../../../avr/lib/avrxmega6\libc.a(fputc.o)
 .text          0x00000000        0x0 c:/program files (x86)/atmel/studio/7.0/toolchain/avr8/avr8-gnu-toolchain/bin/../lib/gcc/avr/5.4.0/../../../../avr/lib/avrxmega6\libc.a(iob.o)
 .data          0x00000000        0x0 c:/program files (x86)/atmel/studio/7.0/toolchain/avr8/avr8-gnu-toolchain/bin/../lib/gcc/avr/5.4.0/../../../../avr/lib/avrxmega6\libc.a(iob.o)
 .bss           0x00000000        0x0 c:/program files (x86)/atmel/studio/7.0/toolchain/avr8/avr8-gnu-toolchain/bin/../lib/gcc/avr/5.4.0/../../../../avr/lib/avrxmega6\libc.a(iob.o)
 .text          0x00000000        0x0 c:/program files (x86)/atmel/studio/7.0/toolchain/avr8/avr8-gnu-toolchain/bin/../lib/gcc/avr/5.4.0/../../../../avr/lib/avrxmega6\libc.a(snprintf_p.o)
 .data          0x00000000        0x0 c:/program files (x86)/atmel/studio/7.0/toolchain/avr8/avr8-gnu-toolchain/bin/../lib/gcc/avr/5.4.0/../../../../avr/lib/avrxmega6\libc.a(snprintf_p.o)
 .bss           0x00000000        0x0 c:/program files (x86)/atmel/studio/7.0/toolchain/avr8/avr8-gnu-toolchain/bin/../lib/gcc/avr/5.4.0/../../../../avr/lib/avrxmega6\libc.a(snprintf_p.o)
 .text          0x00000000        0x0 c:/program files (x86)/atmel/studio/7.0/toolchain/avr8/avr8-gnu-toolchain/bin/../lib/gcc/avr/5.4.0/../../../../avr/lib/avrxmega6\libc.a(sprintf_p.o)
 .data          0x00000000        0x0 c:/program files (x86)/atmel/studio/7.0/toolchain/avr8/avr8-gnu-toolchain/bin/../lib/gcc/avr/5.4.0/../../../../avr/lib/avrxmega6\libc.a(sprintf_p.o)
 .bss           0x00000000        0x0 c:/program files (x86)/atmel/studio/7.0/toolchain/avr8/avr8-gnu-toolchain/bin/../lib/gcc/avr/5.4.0/../../../../avr/lib/avrxmega6\libc.a(sprintf_p.o)
 .text          0x00000000        0x0 c:/program files (x86)/atmel/studio/7.0/toolchain/avr8/avr8-gnu-toolchain/bin/../lib/gcc/avr/5.4.0/../../../../avr/lib/avrxmega6\libc.a(ultoa_invert.o)
 .data          0x00000000        0x0 c:/program files (x86)/atmel/studio/7.0/toolchain/avr8/avr8-gnu-toolchain/bin/../lib/gcc/avr/5.4.0/../../../../avr/lib/avrxmega6\libc.a(ultoa_invert.o)
 .bss           0x00000000        0x0 c:/program files (x86)/atmel/studio/7.0/toolchain/avr8/avr8-gnu-toolchain/bin/../lib/gcc/avr/5.4.0/../../../../avr/lib/avrxmega6\libc.a(ultoa_invert.o)
 .text          0x00000000        0x0 c:/program files (x86)/atmel/studio/7.0/toolchain/avr8/avr8-gnu-toolchain/bin/../lib/gcc/avr/5.4.0/../../../../avr/lib/avrxmega6\libc.a(calloc.o)
 .data          0x00000000        0x0 c:/program files (x86)/atmel/studio/7.0/toolchain/avr8/avr8-gnu-toolchain/bin/../lib/gcc/avr/5.4.0/../../../../avr/lib/avrxmega6\libc.a(calloc.o)
 .bss           0x00000000        0x0 c:/program files (x86)/atmel/studio/7.0/toolchain/avr8/avr8-gnu-toolchain/bin/../lib/gcc/avr/5.4.0/../../../../avr/lib/avrxmega6\libc.a(calloc.o)
 .text          0x00000000        0x0 c:/program files (x86)/atmel/studio/7.0/toolchain/avr8/avr8-gnu-toolchain/bin/../lib/gcc/avr/5.4.0/../../../../avr/lib/avrxmega6\libc.a(errno.o)
 .data          0x00000000        0x0 c:/program files (x86)/atmel/studio/7.0/toolchain/avr8/avr8-gnu-toolchain/bin/../lib/gcc/avr/5.4.0/../../../../avr/lib/avrxmega6\libc.a(errno.o)
 .bss           0x00000000        0x0 c:/program files (x86)/atmel/studio/7.0/toolchain/avr8/avr8-gnu-toolchain/bin/../lib/gcc/avr/5.4.0/../../../../avr/lib/avrxmega6\libc.a(errno.o)
 .text          0x00000000        0x0 c:/program files (x86)/atmel/studio/7.0/toolchain/avr8/avr8-gnu-toolchain/bin/../lib/gcc/avr/5.4.0/../../../../avr/lib/avrxmega6\libc.a(malloc.o)
 .bss           0x00000000        0x0 c:/program files (x86)/atmel/studio/7.0/toolchain/avr8/avr8-gnu-toolchain/bin/../lib/gcc/avr/5.4.0/../../../../avr/lib/avrxmega6\libc.a(malloc.o)
 .text          0x00000000        0x0 c:/program files (x86)/atmel/studio/7.0/toolchain/avr8/avr8-gnu-toolchain/bin/../lib/gcc/avr/5.4.0/../../../../avr/lib/avrxmega6\libc.a(strtod.o)
 .data          0x00000000        0x0 c:/program files (x86)/atmel/studio/7.0/toolchain/avr8/avr8-gnu-toolchain/bin/../lib/gcc/avr/5.4.0/../../../../avr/lib/avrxmega6\libc.a(strtod.o)
 .bss           0x00000000        0x0 c:/program files (x86)/atmel/studio/7.0/toolchain/avr8/avr8-gnu-toolchain/bin/../lib/gcc/avr/5.4.0/../../../../avr/lib/avrxmega6\libc.a(strtod.o)
 .text          0x00000000        0x0 c:/program files (x86)/atmel/studio/7.0/toolchain/avr8/avr8-gnu-toolchain/bin/../lib/gcc/avr/5.4.0/../../../../avr/lib/avrxmega6\libc.a(cty_isfalse.o)
 .data          0x00000000        0x0 c:/program files (x86)/atmel/studio/7.0/toolchain/avr8/avr8-gnu-toolchain/bin/../lib/gcc/avr/5.4.0/../../../../avr/lib/avrxmega6\libc.a(cty_isfalse.o)
 .bss           0x00000000        0x0 c:/program files (x86)/atmel/studio/7.0/toolchain/avr8/avr8-gnu-toolchain/bin/../lib/gcc/avr/5.4.0/../../../../avr/lib/avrxmega6\libc.a(cty_isfalse.o)
 .text          0x00000000        0x0 c:/program files (x86)/atmel/studio/7.0/toolchain/avr8/avr8-gnu-toolchain/bin/../lib/gcc/avr/5.4.0/../../../../avr/lib/avrxmega6\libc.a(memset.o)
 .data          0x00000000        0x0 c:/program files (x86)/atmel/studio/7.0/toolchain/avr8/avr8-gnu-toolchain/bin/../lib/gcc/avr/5.4.0/../../../../avr/lib/avrxmega6\libc.a(memset.o)
 .bss           0x00000000        0x0 c:/program files (x86)/atmel/studio/7.0/toolchain/avr8/avr8-gnu-toolchain/bin/../lib/gcc/avr/5.4.0/../../../../avr/lib/avrxmega6\libc.a(memset.o)

Memory Configuration

Name             Origin             Length             Attributes
text             0x00000000         0x00100000         xr
data             0x00802000         0x0000ffa0         rw !x
eeprom           0x00810000         0x00010000         rw !x
fuse             0x00820000         0x00000006         rw !x
lock             0x00830000         0x00000400         rw !x
signature        0x00840000         0x00000400         rw !x
user_signatures  0x00850000         0x00000400         rw !x
*default*        0x00000000         0xffffffff

Linker script and memory map

LOAD C:/Program Files (x86)/Atmel/Studio/7.0/Packs/Atmel/XMEGAA_DFP/1.1.68/gcc/dev/atxmega256a3bu/avrxmega6/crtatxmega256a3bu.o
LOAD src/ASF/common/services/serial/usart_serial.o
LOAD src/ASF/xmega/drivers/usart/usart.o
LOAD src/serial.o
LOAD src/usb.o
LOAD src/ASF/common/drivers/nvm/xmega/xmega_nvm.o
LOAD src/ASF/common/services/calendar/calendar.o
LOAD src/ASF/common/services/fifo/fifo.o
LOAD src/ASF/common/services/hugemem/avr8/avr8_hugemem.o
LOAD src/ASF/xmega/drivers/dma/dma.o
LOAD src/ASF/xmega/drivers/rtc32/rtc32.o
LOAD src/dds.o
LOAD src/interpreter.o
LOAD src/twi.o
LOAD src/ASF/common/boards/user_board/init.o
LOAD src/ASF/common/services/gfx_mono/gfx_mono_framebuffer.o
LOAD src/ASF/common/services/gfx_mono/gfx_mono_generic.o
LOAD src/ASF/common/services/gfx_mono/gfx_mono_null.o
LOAD src/ASF/common/services/gfx_mono/gfx_mono_text.o
LOAD src/ASF/common/services/gfx_mono/sysfont.o
LOAD src/ASF/common/services/ioport/xmega/ioport_compat.o
LOAD src/ASF/xmega/drivers/adc/adc.o
LOAD src/ASF/xmega/drivers/adc/xmega_aau/adc_aau.o
LOAD src/ASF/xmega/drivers/dac/dac.o
LOAD src/ASF/xmega/drivers/tc/tc.o
LOAD src/ASF/xmega/drivers/twi/twim.o
LOAD src/ASF/xmega/drivers/twi/twis.o
LOAD src/ASF/xmega/drivers/usb/usb_device.o
LOAD src/ASF/xmega/services/pwm/pwm.o
LOAD src/main.o
LOAD src/ASF/common/services/clock/xmega/sysclk.o
LOAD src/ASF/common/services/sleepmgr/xmega/sleepmgr.o
LOAD src/ASF/common/services/usb/class/cdc/device/udi_cdc.o
LOAD src/ASF/common/services/usb/class/cdc/device/udi_cdc_desc.o
LOAD src/ASF/common/services/usb/udc/udc.o
LOAD src/ASF/common/utils/stdio/read.o
LOAD src/ASF/common/utils/stdio/stdio_usb/stdio_usb.o
LOAD src/ASF/common/utils/stdio/write.o
LOAD src/ASF/xmega/drivers/nvm/nvm.o
LOAD src/ASF/xmega/drivers/nvm/nvm_asm.o
LOAD src/ASF/xmega/drivers/cpu/ccp.o
START GROUP
END GROUP
LOAD c:/program files (x86)/atmel/studio/7.0/toolchain/avr8/avr8-gnu-toolchain/bin/../lib/gcc/avr/5.4.0/../../../../avr/lib/avrxmega6\libprintf_flt.a
LOAD c:/program files (x86)/atmel/studio/7.0/toolchain/avr8/avr8-gnu-toolchain/bin/../lib/gcc/avr/5.4.0/../../../../avr/lib/avrxmega6\libm.a
START GROUP
LOAD c:/program files (x86)/atmel/studio/7.0/toolchain/avr8/avr8-gnu-toolchain/bin/../lib/gcc/avr/5.4.0/avrxmega6\libgcc.a
LOAD c:/program files (x86)/atmel/studio/7.0/toolchain/avr8/avr8-gnu-toolchain/bin/../lib/gcc/avr/5.4.0/../../../../avr/lib/avrxmega6\libm.a
LOAD c:/program files (x86)/atmel/studio/7.0/toolchain/avr8/avr8-gnu-toolchain/bin/../lib/gcc/avr/5.4.0/../../../../avr/lib/avrxmega6\libc.a
LOAD C:/Program Files (x86)/Atmel/Studio/7.0/Packs/Atmel/XMEGAA_DFP/1.1.68/gcc/dev/atxmega256a3bu/avrxmega6\libatxmega256a3bu.a
END GROUP
                0x00100000                __TEXT_REGION_LENGTH__ = DEFINED (__TEXT_REGION_LENGTH__)?__TEXT_REGION_LENGTH__:0x100000
                0x0000ffa0                __DATA_REGION_LENGTH__ = DEFINED (__DATA_REGION_LENGTH__)?__DATA_REGION_LENGTH__:0xffa0
                0x00010000                __EEPROM_REGION_LENGTH__ = DEFINED (__EEPROM_REGION_LENGTH__)?__EEPROM_REGION_LENGTH__:0x10000
                [0x00000006]                __FUSE_REGION_LENGTH__ = DEFINED (__FUSE_REGION_LENGTH__)?__FUSE_REGION_LENGTH__:0x400
                0x00000400                __LOCK_REGION_LENGTH__ = DEFINED (__LOCK_REGION_LENGTH__)?__LOCK_REGION_LENGTH__:0x400
                0x00000400                __SIGNATURE_REGION_LENGTH__ = DEFINED (__SIGNATURE_REGION_LENGTH__)?__SIGNATURE_REGION_LENGTH__:0x400
                0x00000400                __USER_SIGNATURE_REGION_LENGTH__ = DEFINED (__USER_SIGNATURE_REGION_LENGTH__)?__USER_SIGNATURE_REGION_LENGTH__:0x400

.hash
 *(.hash)

.dynsym
 *(.dynsym)

.dynstr
 *(.dynstr)

.gnu.version
 *(.gnu.version)

.gnu.version_d
 *(.gnu.version_d)

.gnu.version_r
 *(.gnu.version_r)

.rel.init
 *(.rel.init)

.rela.init
 *(.rela.init)

.rel.text
 *(.rel.text)
 *(.rel.text.*)
 *(.rel.gnu.linkonce.t*)

.rela.text
 *(.rela.text)
 *(.rela.text.*)
 *(.rela.gnu.linkonce.t*)

.rel.fini
 *(.rel.fini)

.rela.fini
 *(.rela.fini)

.rel.rodata
 *(.rel.rodata)
 *(.rel.rodata.*)
 *(.rel.gnu.linkonce.r*)

.rela.rodata
 *(.rela.rodata)
 *(.rela.rodata.*)
 *(.rela.gnu.linkonce.r*)

.rel.data
 *(.rel.data)
 *(.rel.data.*)
 *(.rel.gnu.linkonce.d*)

.rela.data
 *(.rela.data)
 *(.rela.data.*)
 *(.rela.gnu.linkonce.d*)

.rel.ctors
 *(.rel.ctors)

.rela.ctors
 *(.rela.ctors)

.rel.dtors
 *(.rel.dtors)

.rela.dtors
 *(.rela.dtors)

.rel.got
 *(.rel.got)

.rela.got
 *(.rela.got)

.rel.bss
 *(.rel.bss)

.rela.bss
 *(.rela.bss)

.rel.plt
 *(.rel.plt)

.rela.plt
 *(.rela.plt)

.text           0x00000000    0x12cfc
 *(.vectors)
 .vectors       0x00000000      0x1fc C:/Program Files (x86)/Atmel/Studio/7.0/Packs/Atmel/XMEGAA_DFP/1.1.68/gcc/dev/atxmega256a3bu/avrxmega6/crtatxmega256a3bu.o
                0x00000000                __vector_default
                0x00000000                __vectors
 *(.vectors)
 *(.progmem.gcc*)
 .progmem.gcc_sw_table.task_serial
                0x000001fc       0x26 src/serial.o
 .progmem.gcc_sw_table.pwm_init
                0x00000222        0xe src/ASF/xmega/services/pwm/pwm.o
 .progmem.gcc_fplib
                0x00000230       0x1e c:/program files (x86)/atmel/studio/7.0/toolchain/avr8/avr8-gnu-toolchain/bin/../lib/gcc/avr/5.4.0/../../../../avr/lib/avrxmega6\libm.a(fp_sinus.o)
 .progmem.gcc_fplib
                0x0000024e       0x28 c:/program files (x86)/atmel/studio/7.0/toolchain/avr8/avr8-gnu-toolchain/bin/../lib/gcc/avr/5.4.0/../../../../avr/lib/avrxmega6\libm.a(exp.o)
 .progmem.gcc_fplib
                0x00000276       0x5a c:/program files (x86)/atmel/studio/7.0/toolchain/avr8/avr8-gnu-toolchain/bin/../lib/gcc/avr/5.4.0/../../../../avr/lib/avrxmega6\libm.a(log.o)
                0x000002d0                . = ALIGN (0x2)
                0x000002d0                __trampolines_start = .
 *(.trampolines)
 .trampolines   0x000002d0        0x0 linker stubs
 *(.trampolines*)
                0x000002d0                __trampolines_end = .
 *libprintf_flt.a:*(.progmem.data)
 .progmem.data  0x000002d0        0x8 c:/program files (x86)/atmel/studio/7.0/toolchain/avr8/avr8-gnu-toolchain/bin/../lib/gcc/avr/5.4.0/../../../../avr/lib/avrxmega6\libprintf_flt.a(vfprintf_flt.o)
 *libc.a:*(.progmem.data)
 .progmem.data  0x000002d8       0xfa c:/program files (x86)/atmel/studio/7.0/toolchain/avr8/avr8-gnu-toolchain/bin/../lib/gcc/avr/5.4.0/../../../../avr/lib/avrxmega6\libc.a(ftoa_engine.o)
 .progmem.data  0x000003d2       0x3b c:/program files (x86)/atmel/studio/7.0/toolchain/avr8/avr8-gnu-toolchain/bin/../lib/gcc/avr/5.4.0/../../../../avr/lib/avrxmega6\libc.a(strtod.o)
 *(.progmem*)
 .progmem.data.PM_TWI1_UTIL_ONBOARD_SIM808_GPS_GNSINF
                0x0000040d        0x8 src/serial.o
                0x0000040d                PM_TWI1_UTIL_ONBOARD_SIM808_GPS_GNSINF
 .progmem.data.PM_TWI1_INIT_ONBOARD_SIM808_GPS_03
                0x00000415       0x10 src/serial.o
                0x00000415                PM_TWI1_INIT_ONBOARD_SIM808_GPS_03
 .progmem.data.PM_TWI1_INIT_ONBOARD_SIM808_GPS_02
                0x00000425        0xd src/serial.o
                0x00000425                PM_TWI1_INIT_ONBOARD_SIM808_GPS_02
 .progmem.data.PM_TWI1_INIT_ONBOARD_SIM808_GPS_01
                0x00000432       0x10 src/serial.o
                0x00000432                PM_TWI1_INIT_ONBOARD_SIM808_GPS_01
 .progmem.data.PM_TWI1_INIT_ONBOARD_SIM808_INFO_02
                0x00000442        0x9 src/serial.o
                0x00000442                PM_TWI1_INIT_ONBOARD_SIM808_INFO_02
 .progmem.data.PM_TWI1_INIT_ONBOARD_SIM808_INFO_01
                0x0000044b        0x6 src/serial.o
                0x0000044b                PM_TWI1_INIT_ONBOARD_SIM808_INFO_01
 .progmem.data.PM_TWI1_INIT_ONBOARD_SIM808_CFUN1
                0x00000451        0xc src/serial.o
                0x00000451                PM_TWI1_INIT_ONBOARD_SIM808_CFUN1
 .progmem.data.PM_TWI1_INIT_ONBOARD_SIM808_CREG2
                0x0000045d        0xc src/serial.o
                0x0000045d                PM_TWI1_INIT_ONBOARD_SIM808_CREG2
 .progmem.data.PM_TWI1_INIT_ONBOARD_SIM808_CMEE2
                0x00000469        0xc src/serial.o
                0x00000469                PM_TWI1_INIT_ONBOARD_SIM808_CMEE2
 .progmem.data.PM_TWI1_INIT_ONBOARD_SIM808_IFC
                0x00000475        0xd src/serial.o
                0x00000475                PM_TWI1_INIT_ONBOARD_SIM808_IFC
 .progmem.data.PM_TWI1_INIT_ONBOARD_SIM808_IPR
                0x00000482        0xd src/serial.o
                0x00000482                PM_TWI1_INIT_ONBOARD_SIM808_IPR
 .progmem.data.PM_TWI1_INIT_ONBOARD_SIM808_OK
                0x0000048f       0x15 src/serial.o
                0x0000048f                PM_TWI1_INIT_ONBOARD_SIM808_OK
 .progmem.data.PM_TWI1_INIT_ONBOARD_SIM808_RESTART
                0x000004a4       0x1c src/serial.o
                0x000004a4                PM_TWI1_INIT_ONBOARD_SIM808_RESTART
 .progmem.data.PM_TWI1_INIT_ONBOARD_SIM808_START
                0x000004c0       0x1a src/serial.o
                0x000004c0                PM_TWI1_INIT_ONBOARD_SIM808_START
 .progmem.data.PM_SIM808_INFO_SYNCED
                0x000004da       0x22 src/serial.o
                0x000004da                PM_SIM808_INFO_SYNCED
 .progmem.data.PM_SIM808_INFO_RESTART
                0x000004fc       0x28 src/serial.o
                0x000004fc                PM_SIM808_INFO_RESTART
 .progmem.data.PM_SIM808_INFO_START
                0x00000524       0x28 src/serial.o
                0x00000524                PM_SIM808_INFO_START
 .progmem.data.PM_SIM808_OK
                0x0000054c        0x3 src/serial.o
                0x0000054c                PM_SIM808_OK
 .progmem.data.PM_INFO_PART_PLL3
                0x0000054f       0x1b src/usb.o
                0x0000054f                PM_INFO_PART_PLL3
 .progmem.data.PM_INFO_PART_PLL2
                0x0000056a       0x17 src/usb.o
                0x0000056a                PM_INFO_PART_PLL2
 .progmem.data.PM_INFO_PART_PLL1
                0x00000581       0x28 src/usb.o
                0x00000581                PM_INFO_PART_PLL1
 .progmem.data.PM_INFO_PART_L2P4
                0x000005a9       0x1f src/usb.o
                0x000005a9                PM_INFO_PART_L2P4
 .progmem.data.PM_INFO_PART_L2P3B
                0x000005c8       0x18 src/usb.o
                0x000005c8                PM_INFO_PART_L2P3B
 .progmem.data.PM_INFO_PART_L2P3A
                0x000005e0       0x2d src/usb.o
                0x000005e0                PM_INFO_PART_L2P3A
 .progmem.data.PM_INFO_PART_L2P2B
                0x0000060d       0x18 src/usb.o
                0x0000060d                PM_INFO_PART_L2P2B
 .progmem.data.PM_INFO_PART_L2P2A
                0x00000625       0x2f src/usb.o
                0x00000625                PM_INFO_PART_L2P2A
 .progmem.data.PM_INFO_PART_L2P1B
                0x00000654       0x17 src/usb.o
                0x00000654                PM_INFO_PART_L2P1B
 .progmem.data.PM_INFO_PART_L2P1A
                0x0000066b       0x2c src/usb.o
                0x0000066b                PM_INFO_PART_L2P1A
 .progmem.data.PM_INFO_PART_L1P3
                0x00000697       0x2b src/usb.o
                0x00000697                PM_INFO_PART_L1P3
 .progmem.data.PM_INFO_PART_L1P2
                0x000006c2       0x27 src/usb.o
                0x000006c2                PM_INFO_PART_L1P2
 .progmem.data.PM_INFO_PART_L1P1C
                0x000006e9       0x14 src/usb.o
                0x000006e9                PM_INFO_PART_L1P1C
 .progmem.data.PM_INFO_PART_L1P1B
                0x000006fd       0x2a src/usb.o
                0x000006fd                PM_INFO_PART_L1P1B
 .progmem.data.PM_INFO_PART_L1P1A
                0x00000727       0x35 src/usb.o
                0x00000727                PM_INFO_PART_L1P1A
 .progmem.data.PM_USBINIT_HEADER_4
                0x0000075c       0x24 src/usb.o
                0x0000075c                PM_USBINIT_HEADER_4
 .progmem.data.PM_USBINIT_HEADER_3
                0x00000780       0x22 src/usb.o
                0x00000780                PM_USBINIT_HEADER_3
 .progmem.data.PM_USBINIT_HEADER_2
                0x000007a2       0x26 src/usb.o
                0x000007a2                PM_USBINIT_HEADER_2
 .progmem.data.PM_USBINIT_HEADER_1
                0x000007c8        0x7 src/usb.o
                0x000007c8                PM_USBINIT_HEADER_1
 .progmem.data.PM_SINE_IP
                0x000007cf      0x680 src/dds.o
                0x000007cf                PM_SINE_IP
 .progmem.data.PM_SINE
                0x00000e4f     0x2000 src/dds.o
                0x00000e4f                PM_SINE
 .progmem.data.PM_UNKNOWN_01
                0x00002e4f       0x35 src/interpreter.o
                0x00002e4f                PM_UNKNOWN_01
 .progmem.data.PM_IP_CMD_xo
                0x00002e84        0x4 src/interpreter.o
                0x00002e84                PM_IP_CMD_xo
 .progmem.data.PM_IP_CMD_reset
                0x00002e88        0x7 src/interpreter.o
                0x00002e88                PM_IP_CMD_reset
 .progmem.data.PM_IP_CMD_pt
                0x00002e8f        0x4 src/interpreter.o
                0x00002e8f                PM_IP_CMD_pt
 .progmem.data.PM_IP_CMD_kb
                0x00002e93        0x4 src/interpreter.o
                0x00002e93                PM_IP_CMD_kb
 .progmem.data.PM_IP_CMD_help
                0x00002e97        0x5 src/interpreter.o
                0x00002e97                PM_IP_CMD_help
 .progmem.data.PM_IP_CMD_info
                0x00002e9c        0x6 src/interpreter.o
                0x00002e9c                PM_IP_CMD_info
 .progmem.data.PM_IP_CMD_eb
                0x00002ea2        0x4 src/interpreter.o
                0x00002ea2                PM_IP_CMD_eb
 .progmem.data.PM_IP_CMD_dds
                0x00002ea6        0x5 src/interpreter.o
                0x00002ea6                PM_IP_CMD_dds
 .progmem.data.PM_IP_CMD_dac
                0x00002eab        0x5 src/interpreter.o
                0x00002eab                PM_IP_CMD_dac
 .progmem.data.PM_IP_CMD_cal_gyro
                0x00002eb0        0x9 src/interpreter.o
                0x00002eb0                PM_IP_CMD_cal_gyro
 .progmem.data.PM_IP_CMD_cal_defaults
                0x00002eb9        0xd src/interpreter.o
                0x00002eb9                PM_IP_CMD_cal_defaults
 .progmem.data.PM_IP_CMD_cal_accelz
                0x00002ec6        0xb src/interpreter.o
                0x00002ec6                PM_IP_CMD_cal_accelz
 .progmem.data.PM_IP_CMD_cal_accely
                0x00002ed1        0xb src/interpreter.o
                0x00002ed1                PM_IP_CMD_cal_accely
 .progmem.data.PM_IP_CMD_cal_accelx
                0x00002edc        0xb src/interpreter.o
                0x00002edc                PM_IP_CMD_cal_accelx
 .progmem.data.PM_IP_CMD_bl
                0x00002ee7        0x4 src/interpreter.o
                0x00002ee7                PM_IP_CMD_bl
 .progmem.data.PM_IP_CMD_bias
                0x00002eeb        0x6 src/interpreter.o
                0x00002eeb                PM_IP_CMD_bias
 .progmem.data.PM_IP_CMD_A_slash
                0x00002ef1        0x3 src/interpreter.o
                0x00002ef1                PM_IP_CMD_A_slash
 .progmem.data.PM_IP_CMD_AT
                0x00002ef4        0x3 src/interpreter.o
                0x00002ef4                PM_IP_CMD_AT
 .progmem.data.PM_IP_CMD_adc
                0x00002ef7        0x5 src/interpreter.o
                0x00002ef7                PM_IP_CMD_adc
 .progmem.data.PM_IP_CMD_CmdLine
                0x00002efc        0x5 src/interpreter.o
                0x00002efc                PM_IP_CMD_CmdLine
 .progmem.data.PM_IP_CMD_NewLine
                0x00002f01        0x3 src/interpreter.o
                0x00002f01                PM_IP_CMD_NewLine
 .progmem.data.PM_HELP_XO_2
                0x00002f04        0xd src/interpreter.o
                0x00002f04                PM_HELP_XO_2
 .progmem.data.PM_HELP_XO_1
                0x00002f11       0x24 src/interpreter.o
                0x00002f11                PM_HELP_XO_1
 .progmem.data.PM_HELP_RESET_1
                0x00002f35       0x18 src/interpreter.o
                0x00002f35                PM_HELP_RESET_1
 .progmem.data.PM_HELP_PT_2
                0x00002f4d       0x1f src/interpreter.o
                0x00002f4d                PM_HELP_PT_2
 .progmem.data.PM_HELP_PT_1
                0x00002f6c       0x19 src/interpreter.o
                0x00002f6c                PM_HELP_PT_1
 .progmem.data.PM_HELP_KB_1
                0x00002f85       0x1e src/interpreter.o
                0x00002f85                PM_HELP_KB_1
 .progmem.data.PM_HELP_INFO_3
                0x00002fa3       0x11 src/interpreter.o
                0x00002fa3                PM_HELP_INFO_3
 .progmem.data.PM_HELP_INFO_2
                0x00002fb4        0xf src/interpreter.o
                0x00002fb4                PM_HELP_INFO_2
 .progmem.data.PM_HELP_INFO_1
                0x00002fc3       0x1f src/interpreter.o
                0x00002fc3                PM_HELP_INFO_1
 .progmem.data.PM_HELP_HELP_2
                0x00002fe2       0x1f src/interpreter.o
                0x00002fe2                PM_HELP_HELP_2
 .progmem.data.PM_HELP_HELP_1
                0x00003001       0x1d src/interpreter.o
                0x00003001                PM_HELP_HELP_1
 .progmem.data.PM_HELP_EB_1
                0x0000301e       0x20 src/interpreter.o
                0x0000301e                PM_HELP_EB_1
 .progmem.data.PM_HELP_DDS_3
                0x0000303e       0x25 src/interpreter.o
                0x0000303e                PM_HELP_DDS_3
 .progmem.data.PM_HELP_DDS_2
                0x00003063        0xe src/interpreter.o
                0x00003063                PM_HELP_DDS_2
 .progmem.data.PM_HELP_DDS_1
                0x00003071       0x22 src/interpreter.o
                0x00003071                PM_HELP_DDS_1
 .progmem.data.PM_HELP_DAC_2
                0x00003093       0x12 src/interpreter.o
                0x00003093                PM_HELP_DAC_2
 .progmem.data.PM_HELP_DAC_1
                0x000030a5       0x19 src/interpreter.o
                0x000030a5                PM_HELP_DAC_1
 .progmem.data.PM_HELP_CAL_6
                0x000030be       0x24 src/interpreter.o
                0x000030be                PM_HELP_CAL_6
 .progmem.data.PM_HELP_CAL_5
                0x000030e2       0x2f src/interpreter.o
                0x000030e2                PM_HELP_CAL_5
 .progmem.data.PM_HELP_CAL_4
                0x00003111       0x2f src/interpreter.o
                0x00003111                PM_HELP_CAL_4
 .progmem.data.PM_HELP_CAL_3
                0x00003140       0x2f src/interpreter.o
                0x00003140                PM_HELP_CAL_3
 .progmem.data.PM_HELP_CAL_2
                0x0000316f        0xc src/interpreter.o
                0x0000316f                PM_HELP_CAL_2
 .progmem.data.PM_HELP_CAL_1
                0x0000317b       0x25 src/interpreter.o
                0x0000317b                PM_HELP_CAL_1
 .progmem.data.PM_HELP_BL_2
                0x000031a0       0x22 src/interpreter.o
                0x000031a0                PM_HELP_BL_2
 .progmem.data.PM_HELP_BL_1
                0x000031c2       0x1c src/interpreter.o
                0x000031c2                PM_HELP_BL_1
 .progmem.data.PM_HELP_BIAS_2
                0x000031de       0x13 src/interpreter.o
                0x000031de                PM_HELP_BIAS_2
 .progmem.data.PM_HELP_BIAS_1
                0x000031f1       0x1b src/interpreter.o
                0x000031f1                PM_HELP_BIAS_1
 .progmem.data.PM_HELP_AT_1
                0x0000320c       0x20 src/interpreter.o
                0x0000320c                PM_HELP_AT_1
 .progmem.data.PM_HELP_ADC_2
                0x0000322c       0x1b src/interpreter.o
                0x0000322c                PM_HELP_ADC_2
 .progmem.data.PM_HELP_ADC_1
                0x00003247       0x22 src/interpreter.o
                0x00003247                PM_HELP_ADC_1
 .progmem.data.PM_HELP_HDR_2
                0x00003269       0x1f src/interpreter.o
                0x00003269                PM_HELP_HDR_2
 .progmem.data.PM_HELP_HDR_1
                0x00003288       0x15 src/interpreter.o
                0x00003288                PM_HELP_HDR_1
 .progmem.data.PM_TWIINIT_ACCEL
                0x0000329d        0x7 src/twi.o
                0x0000329d                PM_TWIINIT_ACCEL
 .progmem.data.PM_TWIINIT_MAGNETICS
                0x000032a4        0xa src/twi.o
                0x000032a4                PM_TWIINIT_MAGNETICS
 .progmem.data.PM_TWIINIT_GZ
                0x000032ae        0x3 src/twi.o
                0x000032ae                PM_TWIINIT_GZ
 .progmem.data.PM_TWIINIT_GY
                0x000032b1        0x3 src/twi.o
                0x000032b1                PM_TWIINIT_GY
 .progmem.data.PM_TWIINIT_GX
                0x000032b4        0x3 src/twi.o
                0x000032b4                PM_TWIINIT_GX
 .progmem.data.PM_TWIINIT_HPA
                0x000032b7        0x4 src/twi.o
                0x000032b7                PM_TWIINIT_HPA
 .progmem.data.PM_TWIINIT_P100
                0x000032bb        0x2 src/twi.o
                0x000032bb                PM_TWIINIT_P100
 .progmem.data.PM_TWIINIT_V
                0x000032bd        0x2 src/twi.o
                0x000032bd                PM_TWIINIT_V
 .progmem.data.PM_TWIINIT_C
                0x000032bf        0x2 src/twi.o
                0x000032bf                PM_TWIINIT_C
 .progmem.data.PM_TWIINIT_HY_RELH
                0x000032c1        0xa src/twi.o
                0x000032c1                PM_TWIINIT_HY_RELH
 .progmem.data.PM_TWIINIT_HY_TEMP
                0x000032cb        0xa src/twi.o
                0x000032cb                PM_TWIINIT_HY_TEMP
 .progmem.data.PM_TWIINIT_BA_PRES
                0x000032d5        0xa src/twi.o
                0x000032d5                PM_TWIINIT_BA_PRES
 .progmem.data.PM_TWIINIT_BA_TEMP
                0x000032df        0xa src/twi.o
                0x000032df                PM_TWIINIT_BA_TEMP
 .progmem.data.PM_TWIINIT_MP_UVCTCXO
                0x000032e9        0xa src/twi.o
                0x000032e9                PM_TWIINIT_MP_UVCTCXO
 .progmem.data.PM_TWIINIT_MP_UBAT
                0x000032f3        0x7 src/twi.o
                0x000032f3                PM_TWIINIT_MP_UBAT
 .progmem.data.PM_TWIINIT_MP_UUSB
                0x000032fa        0x7 src/twi.o
                0x000032fa                PM_TWIINIT_MP_UUSB
 .progmem.data.PM_TWIINIT_MP_TEMP
                0x00003301        0xa src/twi.o
                0x00003301                PM_TWIINIT_MP_TEMP
 .progmem.data.PM_TWIINIT_DATE_TIME
                0x0000330b       0x18 src/twi.o
                0x0000330b                PM_TWIINIT_DATE_TIME
 .progmem.data.PM_TWIHEADER_BY_DF4IAH
                0x00003323        0xa src/twi.o
                0x00003323                PM_TWIHEADER_BY_DF4IAH
 .progmem.data.PM_TWIHEADER_FINDMESAT
                0x0000332d        0xa src/twi.o
                0x0000332d                PM_TWIHEADER_FINDMESAT
 .progmem.data.PM_TWI1_INIT_ONBOARD_01
                0x00003337       0x10 src/twi.o
                0x00003337                PM_TWI1_INIT_ONBOARD_01
 .progmem.data.PM_TWI1_INIT_ONBOARD_BARO_OK
                0x00003347       0x14 src/twi.o
                0x00003347                PM_TWI1_INIT_ONBOARD_BARO_OK
 .progmem.data.PM_TWI1_INIT_BARO_06
                0x0000335b       0x31 src/twi.o
                0x0000335b                PM_TWI1_INIT_BARO_06
 .progmem.data.PM_TWI1_INIT_BARO_05
                0x0000338c       0x1e src/twi.o
                0x0000338c                PM_TWI1_INIT_BARO_05
 .progmem.data.PM_TWI1_INIT_BARO_04
                0x000033aa       0x35 src/twi.o
                0x000033aa                PM_TWI1_INIT_BARO_04
 .progmem.data.PM_TWI1_INIT_BARO_03
                0x000033df       0x36 src/twi.o
                0x000033df                PM_TWI1_INIT_BARO_03
 .progmem.data.PM_TWI1_INIT_BARO_02
                0x00003415       0x35 src/twi.o
                0x00003415                PM_TWI1_INIT_BARO_02
 .progmem.data.PM_TWI1_INIT_BARO_01
                0x0000344a       0x3c src/twi.o
                0x0000344a                PM_TWI1_INIT_BARO_01
 .progmem.data.PM_TWI1_INIT_ONBOARD_GYRO_OK
                0x00003486       0x14 src/twi.o
                0x00003486                PM_TWI1_INIT_ONBOARD_GYRO_OK
 .progmem.data.PM_TWI1_INIT_GYRO_05
                0x0000349a       0x31 src/twi.o
                0x0000349a                PM_TWI1_INIT_GYRO_05
 .progmem.data.PM_TWI1_INIT_GYRO_04
                0x000034cb       0x1e src/twi.o
                0x000034cb                PM_TWI1_INIT_GYRO_04
 .progmem.data.PM_TWI1_INIT_GYRO_03
                0x000034e9       0x3b src/twi.o
                0x000034e9                PM_TWI1_INIT_GYRO_03
 .progmem.data.PM_TWI1_INIT_GYRO_02
                0x00003524       0x3a src/twi.o
                0x00003524                PM_TWI1_INIT_GYRO_02
 .progmem.data.PM_TWI1_INIT_GYRO_01
                0x0000355e       0x3d src/twi.o
                0x0000355e                PM_TWI1_INIT_GYRO_01
 .progmem.data.PM_TWI1_INIT_ONBOARD_HYGRO_OK
                0x0000359b       0x14 src/twi.o
                0x0000359b                PM_TWI1_INIT_ONBOARD_HYGRO_OK
 .progmem.data.PM_TWI1_INIT_HYGRO_05
                0x000035af       0x31 src/twi.o
                0x000035af                PM_TWI1_INIT_HYGRO_05
 .progmem.data.PM_TWI1_INIT_HYGRO_04
                0x000035e0       0x1e src/twi.o
                0x000035e0                PM_TWI1_INIT_HYGRO_04
 .progmem.data.PM_TWI1_INIT_HYGRO_03
                0x000035fe       0x32 src/twi.o
                0x000035fe                PM_TWI1_INIT_HYGRO_03
 .progmem.data.PM_TWI1_INIT_HYGRO_02
                0x00003630       0x47 src/twi.o
                0x00003630                PM_TWI1_INIT_HYGRO_02
 .progmem.data.PM_TWI1_INIT_HYGRO_01
                0x00003677       0x37 src/twi.o
                0x00003677                PM_TWI1_INIT_HYGRO_01
 .progmem.data.PM_FORMAT_KMPH
                0x000036ae        0x4 src/twi.o
                0x000036ae                PM_FORMAT_KMPH
 .progmem.data.PM_FORMAT_07F2
                0x000036b2        0x7 src/twi.o
                0x000036b2                PM_FORMAT_07F2
 .progmem.data.PM_FORMAT_05F2
                0x000036b9        0x7 src/twi.o
                0x000036b9                PM_FORMAT_05F2
 .progmem.data.PM_FORMAT_05LD
                0x000036c0        0x6 src/twi.o
                0x000036c0                PM_FORMAT_05LD
 .progmem.data.PM_FORMAT_5F3
                0x000036c6        0x6 src/twi.o
                0x000036c6                PM_FORMAT_5F3
 .progmem.data.PM_FORMAT_5F1
                0x000036cc        0x6 src/twi.o
                0x000036cc                PM_FORMAT_5F1
 .progmem.data.PM_FORMAT_4F1
                0x000036d2        0x6 src/twi.o
                0x000036d2                PM_FORMAT_4F1
 .progmem.data.PM_FORMAT_4LD
                0x000036d8        0x5 src/twi.o
                0x000036d8                PM_FORMAT_4LD
 .progmem.data.PM_FORMAT_03LD
                0x000036dd        0x6 src/twi.o
                0x000036dd                PM_FORMAT_03LD
 .progmem.data.PM_FORMAT_02LD
                0x000036e3        0x6 src/twi.o
                0x000036e3                PM_FORMAT_02LD
 .progmem.data.PM_DEBUG_MAIN_1PPS_2
                0x000036e9       0x1c src/main.o
                0x000036e9                PM_DEBUG_MAIN_1PPS_2
 .progmem.data.PM_DEBUG_MAIN_1PPS_1
                0x00003705       0x39 src/main.o
                0x00003705                PM_DEBUG_MAIN_1PPS_1
                0x0000373e                . = ALIGN (0x2)
 *(.jumptables)
 *(.jumptables*)
 *(.lowtext)
 *(.lowtext*)
                0x0000373e                __ctors_start = .
 *(.ctors)
                0x0000373e                __ctors_end = .
                0x0000373e                __dtors_start = .
 *(.dtors)
                0x0000373e                __dtors_end = .
 SORT(*)(.ctors)
 SORT(*)(.dtors)
 *(.init0)
 .init0         0x0000373e        0x0 C:/Program Files (x86)/Atmel/Studio/7.0/Packs/Atmel/XMEGAA_DFP/1.1.68/gcc/dev/atxmega256a3bu/avrxmega6/crtatxmega256a3bu.o
                0x0000373e                __init
 *(.init0)
 *(.init1)
 *(.init1)
 *(.init2)
 .init2         0x0000373e       0x10 C:/Program Files (x86)/Atmel/Studio/7.0/Packs/Atmel/XMEGAA_DFP/1.1.68/gcc/dev/atxmega256a3bu/avrxmega6/crtatxmega256a3bu.o
 *(.init2)
 *(.init3)
 *(.init3)
 *(.init4)
 .init4         0x0000374e       0x1a c:/program files (x86)/atmel/studio/7.0/toolchain/avr8/avr8-gnu-toolchain/bin/../lib/gcc/avr/5.4.0/avrxmega6\libgcc.a(_copy_data.o)
                0x0000374e                __do_copy_data
 .init4         0x00003768       0x10 c:/program files (x86)/atmel/studio/7.0/toolchain/avr8/avr8-gnu-toolchain/bin/../lib/gcc/avr/5.4.0/avrxmega6\libgcc.a(_clear_bss.o)
                0x00003768                __do_clear_bss
 *(.init4)
 *(.init5)
 *(.init5)
 *(.init6)
 *(.init6)
 *(.init7)
 *(.init7)
 *(.init8)
 *(.init8)
 *(.init9)
 .init9         0x00003778        0x8 C:/Program Files (x86)/Atmel/Studio/7.0/Packs/Atmel/XMEGAA_DFP/1.1.68/gcc/dev/atxmega256a3bu/avrxmega6/crtatxmega256a3bu.o
 *(.init9)
 *(.text)
 .text          0x00003780        0x4 C:/Program Files (x86)/Atmel/Studio/7.0/Packs/Atmel/XMEGAA_DFP/1.1.68/gcc/dev/atxmega256a3bu/avrxmega6/crtatxmega256a3bu.o
                0x00003780                __vector_38
                0x00003780                __vector_104
                0x00003780                __vector_63
                0x00003780                __vector_28
                0x00003780                __vector_67
                0x00003780                __vector_1
                0x00003780                __vector_32
                0x00003780                __vector_75
                0x00003780                __vector_91
                0x00003780                __vector_34
                0x00003780                __vector_62
                0x00003780                __vector_102
                0x00003780                __vector_24
                0x00003780                __vector_12
                0x00003780                __vector_69
                0x00003780                __vector_90
                0x00003780                __bad_interrupt
                0x00003780                __vector_122
                0x00003780                __vector_114
                0x00003780                __vector_31
                0x00003780                __vector_92
                0x00003780                __vector_35
                0x00003780                __vector_117
                0x00003780                __vector_107
                0x00003780                __vector_3
                0x00003780                __vector_105
                0x00003780                __vector_98
                0x00003780                __vector_68
                0x00003780                __vector_30
                0x00003780                __vector_45
                0x00003780                __vector_25
                0x00003780                __vector_93
                0x00003780                __vector_61
                0x00003780                __vector_99
                0x00003780                __vector_123
                0x00003780                __vector_100
                0x00003780                __vector_101
                0x00003780                __vector_64
                0x00003780                __vector_88
                0x00003780                __vector_43
                0x00003780                __vector_27
                0x00003780                __vector_5
                0x00003780                __vector_33
                0x00003780                __vector_76
                0x00003780                __vector_115
                0x00003780                __vector_37
                0x00003780                __vector_95
                0x00003780                __vector_103
                0x00003780                __vector_96
                0x00003780                __vector_89
                0x00003780                __vector_44
                0x00003780                __vector_106
                0x00003780                __vector_118
                0x00003780                __vector_2
                0x00003780                __vector_66
                0x00003780                __vector_36
                0x00003780                __vector_58
                0x00003780                __vector_70
                0x00003780                __vector_29
                0x00003780                __vector_60
                0x00003780                __vector_121
                0x00003780                __vector_94
                0x00003780                __vector_26
                0x00003780                __vector_124
                0x00003780                __vector_116
                0x00003780                __vector_57
                0x00003780                __vector_10
                0x00003780                __vector_59
                0x00003780                __vector_97
                0x00003780                __vector_87
                0x00003780                __vector_65
                0x00003780                __vector_120
                0x00003784                . = ALIGN (0x2)
 *(.text.*)
 .text.usart_serial_write_packet
                0x00003784       0x34 src/ASF/common/services/serial/usart_serial.o
                0x00003784                usart_serial_write_packet
 .text.sysclk_enable_peripheral_clock
                0x000037b8      0x170 src/ASF/xmega/drivers/usart/usart.o
 .text.usart_putchar
                0x00003928       0x10 src/ASF/xmega/drivers/usart/usart.o
                0x00003928                usart_putchar
 .text.usart_getchar
                0x00003938        0xc src/ASF/xmega/drivers/usart/usart.o
                0x00003938                usart_getchar
 .text.usart_set_baudrate
                0x00003944      0x1c6 src/ASF/xmega/drivers/usart/usart.o
                0x00003944                usart_set_baudrate
 .text.usart_init_rs232
                0x00003b0a       0x52 src/ASF/xmega/drivers/usart/usart.o
                0x00003b0a                usart_init_rs232
 .text.cpu_irq_save
                0x00003b5c       0x1a src/serial.o
 .text.__portable_avr_delay_cycles
                0x00003b76       0x16 src/serial.o
 .text.ioport_set_pin_mode
                0x00003b8c       0x3a src/serial.o
 .text.__vector_119
                0x00003bc6       0x9a src/serial.o
                0x00003bc6                __vector_119
 .text.serial_sim808_send
                0x00003c60       0x3c src/serial.o
                0x00003c60                serial_sim808_send
 .text.serial_init
                0x00003c9c       0xdc src/serial.o
                0x00003c9c                serial_init
 .text.serial_start
                0x00003d78      0x41a src/serial.o
                0x00003d78                serial_start
 .text.serial_send_gns_urc
                0x00004192       0x36 src/serial.o
                0x00004192                serial_send_gns_urc
 .text.task_serial
                0x000041c8      0x5a8 src/serial.o
                0x000041c8                task_serial
 .text.udi_write_tx_char
                0x00004770       0x2c src/usb.o
 .text.udi_write_tx_buf
                0x0000479c       0x70 src/usb.o
                0x0000479c                udi_write_tx_buf
 .text.udi_write_serial_line
                0x0000480c       0xa8 src/usb.o
                0x0000480c                udi_write_serial_line
 .text.usb_init
                0x000048b4       0xf8 src/usb.o
                0x000048b4                usb_init
 .text.usb_callback_suspend_action
                0x000049ac        0x8 src/usb.o
                0x000049ac                usb_callback_suspend_action
 .text.usb_callback_resume_action
                0x000049b4        0x8 src/usb.o
                0x000049b4                usb_callback_resume_action
 .text.usb_callback_remotewakeup_enable
                0x000049bc        0x2 src/usb.o
                0x000049bc                usb_callback_remotewakeup_enable
 .text.usb_callback_remotewakeup_disable
                0x000049be        0x2 src/usb.o
                0x000049be                usb_callback_remotewakeup_disable
 .text.usb_callback_cdc_enable
                0x000049c0        0x8 src/usb.o
                0x000049c0                usb_callback_cdc_enable
 .text.usb_callback_cdc_disable
                0x000049c8        0x6 src/usb.o
                0x000049c8                usb_callback_cdc_disable
 .text.usb_callback_config
                0x000049ce        0x2 src/usb.o
                0x000049ce                usb_callback_config
 .text.usb_callback_cdc_set_dtr
                0x000049d0        0x2 src/usb.o
                0x000049d0                usb_callback_cdc_set_dtr
 .text.usb_callback_cdc_set_rts
                0x000049d2        0x2 src/usb.o
                0x000049d2                usb_callback_cdc_set_rts
 .text.usb_callback_rx_notify
                0x000049d4        0x8 src/usb.o
                0x000049d4                usb_callback_rx_notify
 .text.usb_callback_tx_empty_notify
                0x000049dc        0x6 src/usb.o
                0x000049dc                usb_callback_tx_empty_notify
 .text.task_usb
                0x000049e2      0x982 src/usb.o
                0x000049e2                task_usb
 .text.nvm_init
                0x00005364        0xc src/ASF/common/drivers/nvm/xmega/xmega_nvm.o
                0x00005364                nvm_init
 .text.nvm_read
                0x00005370       0x4c src/ASF/common/drivers/nvm/xmega/xmega_nvm.o
                0x00005370                nvm_read
 .text.nvm_write
                0x000053bc       0x50 src/ASF/common/drivers/nvm/xmega/xmega_nvm.o
                0x000053bc                nvm_write
 .text.calendar_leapyear
                0x0000540c       0x32 src/ASF/common/services/calendar/calendar.o
 .text.calendar_is_date_valid
                0x0000543e       0x60 src/ASF/common/services/calendar/calendar.o
                0x0000543e                calendar_is_date_valid
 .text.calendar_timestamp_to_date
                0x0000549e      0x11a src/ASF/common/services/calendar/calendar.o
                0x0000549e                calendar_timestamp_to_date
 .text.calendar_date_to_timestamp
                0x000055b8       0xf6 src/ASF/common/services/calendar/calendar.o
                0x000055b8                calendar_date_to_timestamp
 .text.fifo_init
                0x000056ae       0x18 src/ASF/common/services/fifo/fifo.o
                0x000056ae                fifo_init
 .text.cpu_irq_save
                0x000056c6       0x1a src/ASF/xmega/drivers/dma/dma.o
 .text.dma_interrupt
                0x000056e0       0xca src/ASF/xmega/drivers/dma/dma.o
 .text.dma_enable
                0x000057aa       0x2e src/ASF/xmega/drivers/dma/dma.o
                0x000057aa                dma_enable
 .text.dma_disable
                0x000057d8       0x26 src/ASF/xmega/drivers/dma/dma.o
                0x000057d8                dma_disable
 .text.dma_set_callback
                0x000057fe       0x12 src/ASF/xmega/drivers/dma/dma.o
                0x000057fe                dma_set_callback
 .text.__vector_6
                0x00005810       0x50 src/ASF/xmega/drivers/dma/dma.o
                0x00005810                __vector_6
 .text.__vector_7
                0x00005860       0x50 src/ASF/xmega/drivers/dma/dma.o
                0x00005860                __vector_7
 .text.__vector_8
                0x000058b0       0x50 src/ASF/xmega/drivers/dma/dma.o
                0x000058b0                __vector_8
 .text.__vector_9
                0x00005900       0x50 src/ASF/xmega/drivers/dma/dma.o
                0x00005900                __vector_9
 .text.dma_channel_write_config
                0x00005950       0x5c src/ASF/xmega/drivers/dma/dma.o
                0x00005950                dma_channel_write_config
 .text.__portable_avr_delay_cycles.constprop.1
                0x000059ac       0x10 src/ASF/xmega/drivers/rtc32/rtc32.o
 .text.rtc_get_time
                0x000059bc       0x20 src/ASF/xmega/drivers/rtc32/rtc32.o
                0x000059bc                rtc_get_time
 .text.rtc_set_alarm
                0x000059dc       0x16 src/ASF/xmega/drivers/rtc32/rtc32.o
                0x000059dc                rtc_set_alarm
 .text.rtc_set_callback
                0x000059f2        0xa src/ASF/xmega/drivers/rtc32/rtc32.o
                0x000059f2                rtc_set_callback
 .text.rtc_init
                0x000059fc       0x88 src/ASF/xmega/drivers/rtc32/rtc32.o
                0x000059fc                rtc_init
 .text.__vector_11
                0x00005a84       0x7c src/ASF/xmega/drivers/rtc32/rtc32.o
                0x00005a84                __vector_11
 .text.get_interpolated_sine
                0x00005b00       0x64 src/dds.o
                0x00005b00                get_interpolated_sine
 .text.printHelp
                0x00005b64      0x6c2 src/interpreter.o
                0x00005b64                printHelp
 .text.interpreter_doProcess
                0x00006226      0x56e src/interpreter.o
                0x00006226                interpreter_doProcess
 .text.cpu_irq_save
                0x00006794       0x1a src/twi.o
 .text.__portable_avr_delay_cycles
                0x000067ae       0x16 src/twi.o
 .text.task_twi1_hygro
                0x000067c4       0x80 src/twi.o
 .text.task_twi1_baro
                0x00006844      0x3ca src/twi.o
 .text.twi_master_read
                0x00006c0e        0x6 src/twi.o
 .text.twi_master_write
                0x00006c14        0x6 src/twi.o
 .text.calc_gyro2_correct_mag_2_nT
                0x00006c1a       0x9a src/twi.o
 .text.task_twi1_gyro
                0x00006cb4      0x308 src/twi.o
 .text.service_twi1_baro.isra.3
                0x00006fbc      0x1a4 src/twi.o
 .text.sysclk_enable_peripheral_clock
                0x00007160      0x1d4 src/twi.o
 .text.twi2_waitUntilReady
                0x00007334       0x7c src/twi.o
                0x00007334                twi2_waitUntilReady
 .text.twi2_set_leds
                0x000073b0       0x30 src/twi.o
                0x000073b0                twi2_set_leds
 .text.twi2_set_ledbl
                0x000073e0       0x3a src/twi.o
                0x000073e0                twi2_set_ledbl
 .text.twi2_set_bias
                0x0000741a       0x2e src/twi.o
                0x0000741a                twi2_set_bias
 .text.twi2_set_beep
                0x00007448       0x3a src/twi.o
                0x00007448                twi2_set_beep
 .text.twi1_gyro_gyro_offset_set
                0x00007482       0x58 src/twi.o
                0x00007482                twi1_gyro_gyro_offset_set
 .text.twi1_gyro_accel_offset_set
                0x000074da       0xb2 src/twi.o
                0x000074da                twi1_gyro_accel_offset_set
 .text.twi_init
                0x0000758c       0x14 src/twi.o
                0x0000758c                twi_init
 .text.isr_100ms_twi1_onboard
                0x000075a0      0x256 src/twi.o
                0x000075a0                isr_100ms_twi1_onboard
 .text.isr_500ms_twi1_onboard
                0x000077f6       0xe2 src/twi.o
                0x000077f6                isr_500ms_twi1_onboard
 .text.isr_sparetime_twi1_onboard
                0x000078d8       0x38 src/twi.o
                0x000078d8                isr_sparetime_twi1_onboard
 .text.task_twi2_lcd_cls
                0x00007910       0x22 src/twi.o
                0x00007910                task_twi2_lcd_cls
 .text.task_twi2_lcd_pos_xy
                0x00007932       0x3c src/twi.o
                0x00007932                task_twi2_lcd_pos_xy
 .text.task_twi2_lcd_print_format_long_P
                0x0000796e       0x76 src/twi.o
 .text.task_twi2_lcd_print_format_float_P
                0x000079e4       0x76 src/twi.o
 .text.task_twi2_lcd_print_format_c
                0x00007a5a       0x3a src/twi.o
 .text.task_twi2_lcd_str
                0x00007a94       0x9c src/twi.o
                0x00007a94                task_twi2_lcd_str
 .text.init_twi1_gyro
                0x00007b30      0x4ac src/twi.o
                0x00007b30                init_twi1_gyro
 .text.task_twi2_lcd_line
                0x00007fdc       0x4c src/twi.o
                0x00007fdc                task_twi2_lcd_line
 .text.task_twi2_lcd_rect
                0x00008028       0x56 src/twi.o
                0x00008028                task_twi2_lcd_rect
 .text.task_twi2_lcd_circ
                0x0000807e       0x4e src/twi.o
                0x0000807e                task_twi2_lcd_circ
 .text.task_twi2_lcd_header
                0x000080cc       0x66 src/twi.o
                0x000080cc                task_twi2_lcd_header
 .text.twi_start
                0x00008132      0x6ca src/twi.o
                0x00008132                twi_start
 .text.task_twi2_lcd_print_format_P
                0x000087fc       0x5c src/twi.o
                0x000087fc                task_twi2_lcd_print_format_P
 .text.task_twi2_lcd__cpu1
                0x00008858      0x2b2 src/twi.o
                0x00008858                task_twi2_lcd__cpu1
 .text.task_twi2_lcd__cpu2
                0x00008b0a       0xaa src/twi.o
                0x00008b0a                task_twi2_lcd__cpu2
 .text.task_twi2_lcd__sim1
                0x00008bb4      0x386 src/twi.o
                0x00008bb4                task_twi2_lcd__sim1
 .text.task_twi2_lcd__hygro
                0x00008f3a       0xaa src/twi.o
                0x00008f3a                task_twi2_lcd__hygro
 .text.task_twi2_lcd__gyro_gfxmag
                0x00008fe4      0x3d2 src/twi.o
                0x00008fe4                task_twi2_lcd__gyro_gfxmag
 .text.task_twi2_lcd__gyro_gfxaccel
                0x000093b6      0x1ea src/twi.o
                0x000093b6                task_twi2_lcd__gyro_gfxaccel
 .text.task_twi2_lcd__gyro_gfxgyro
                0x000095a0      0x4d2 src/twi.o
                0x000095a0                task_twi2_lcd__gyro_gfxgyro
 .text.task_twi2_lcd__gyro_beepvario
                0x00009a72       0xa6 src/twi.o
                0x00009a72                task_twi2_lcd__gyro_beepvario
 .text.task_twi2_lcd__gyro
                0x00009b18        0x8 src/twi.o
                0x00009b18                task_twi2_lcd__gyro
 .text.task_twi2_lcd__baro
                0x00009b20       0xe0 src/twi.o
                0x00009b20                task_twi2_lcd__baro
 .text.task_twi
                0x00009c00      0x3a8 src/twi.o
                0x00009c00                task_twi
 .text.board_init
                0x00009fa8        0x2 src/ASF/common/boards/user_board/init.o
                0x00009fa8                board_init
 .text.cpu_irq_save
                0x00009faa       0x1a src/ASF/xmega/drivers/adc/adc.o
 .text.adc_set_callback
                0x00009fc4       0x3a src/ASF/xmega/drivers/adc/adc.o
                0x00009fc4                adc_set_callback
 .text.adc_enable_clock
                0x00009ffe       0x3e src/ASF/xmega/drivers/adc/adc.o
                0x00009ffe                adc_enable_clock
 .text.adc_disable_clock
                0x0000a03c       0x3a src/ASF/xmega/drivers/adc/adc.o
                0x0000a03c                adc_disable_clock
 .text.adc_enable
                0x0000a076       0x38 src/ASF/xmega/drivers/adc/adc.o
                0x0000a076                adc_enable
 .text.adc_disable
                0x0000a0ae       0x38 src/ASF/xmega/drivers/adc/adc.o
                0x0000a0ae                adc_disable
 .text.cpu_irq_save
                0x0000a0e6       0x1a src/ASF/xmega/drivers/adc/xmega_aau/adc_aau.o
 .text.__vector_71
                0x0000a100       0x64 src/ASF/xmega/drivers/adc/xmega_aau/adc_aau.o
                0x0000a100                __vector_71
 .text.__vector_72
                0x0000a164       0x64 src/ASF/xmega/drivers/adc/xmega_aau/adc_aau.o
                0x0000a164                __vector_72
 .text.__vector_73
                0x0000a1c8       0x64 src/ASF/xmega/drivers/adc/xmega_aau/adc_aau.o
                0x0000a1c8                __vector_73
 .text.__vector_74
                0x0000a22c       0x64 src/ASF/xmega/drivers/adc/xmega_aau/adc_aau.o
                0x0000a22c                __vector_74
 .text.__vector_39
                0x0000a290       0x64 src/ASF/xmega/drivers/adc/xmega_aau/adc_aau.o
                0x0000a290                __vector_39
 .text.__vector_40
                0x0000a2f4       0x64 src/ASF/xmega/drivers/adc/xmega_aau/adc_aau.o
                0x0000a2f4                __vector_40
 .text.__vector_41
                0x0000a358       0x64 src/ASF/xmega/drivers/adc/xmega_aau/adc_aau.o
                0x0000a358                __vector_41
 .text.__vector_42
                0x0000a3bc       0x64 src/ASF/xmega/drivers/adc/xmega_aau/adc_aau.o
                0x0000a3bc                __vector_42
 .text.adc_write_configuration
                0x0000a420       0xb8 src/ASF/xmega/drivers/adc/xmega_aau/adc_aau.o
                0x0000a420                adc_write_configuration
 .text.adc_read_configuration
                0x0000a4d8       0x48 src/ASF/xmega/drivers/adc/xmega_aau/adc_aau.o
                0x0000a4d8                adc_read_configuration
 .text.adcch_write_configuration
                0x0000a520       0x70 src/ASF/xmega/drivers/adc/xmega_aau/adc_aau.o
                0x0000a520                adcch_write_configuration
 .text.adcch_read_configuration
                0x0000a590       0x70 src/ASF/xmega/drivers/adc/xmega_aau/adc_aau.o
                0x0000a590                adcch_read_configuration
 .text.cpu_irq_save
                0x0000a600       0x1a src/ASF/xmega/drivers/dac/dac.o
 .text.dac_enable_clock
                0x0000a61a       0x20 src/ASF/xmega/drivers/dac/dac.o
 .text.dac_disable_clock
                0x0000a63a       0x1e src/ASF/xmega/drivers/dac/dac.o
 .text.dac_enable
                0x0000a658       0x38 src/ASF/xmega/drivers/dac/dac.o
                0x0000a658                dac_enable
 .text.dac_disable
                0x0000a690       0x38 src/ASF/xmega/drivers/dac/dac.o
                0x0000a690                dac_disable
 .text.dac_write_configuration
                0x0000a6c8       0x9e src/ASF/xmega/drivers/dac/dac.o
                0x0000a6c8                dac_write_configuration
 .text.dac_read_configuration
                0x0000a766       0x3c src/ASF/xmega/drivers/dac/dac.o
                0x0000a766                dac_read_configuration
 .text.cpu_irq_save
                0x0000a7a2       0x1a src/ASF/xmega/drivers/tc/tc.o
 .text.__vector_14
                0x0000a7bc       0x5a src/ASF/xmega/drivers/tc/tc.o
                0x0000a7bc                __vector_14
 .text.__vector_15
                0x0000a816       0x5a src/ASF/xmega/drivers/tc/tc.o
                0x0000a816                __vector_15
 .text.__vector_16
                0x0000a870       0x5a src/ASF/xmega/drivers/tc/tc.o
                0x0000a870                __vector_16
 .text.__vector_17
                0x0000a8ca       0x5a src/ASF/xmega/drivers/tc/tc.o
                0x0000a8ca                __vector_17
 .text.__vector_18
                0x0000a924       0x5a src/ASF/xmega/drivers/tc/tc.o
                0x0000a924                __vector_18
 .text.__vector_19
                0x0000a97e       0x5a src/ASF/xmega/drivers/tc/tc.o
                0x0000a97e                __vector_19
 .text.__vector_20
                0x0000a9d8       0x5a src/ASF/xmega/drivers/tc/tc.o
                0x0000a9d8                __vector_20
 .text.__vector_21
                0x0000aa32       0x5a src/ASF/xmega/drivers/tc/tc.o
                0x0000aa32                __vector_21
 .text.__vector_22
                0x0000aa8c       0x5a src/ASF/xmega/drivers/tc/tc.o
                0x0000aa8c                __vector_22
 .text.__vector_23
                0x0000aae6       0x5a src/ASF/xmega/drivers/tc/tc.o
                0x0000aae6                __vector_23
 .text.__vector_77
                0x0000ab40       0x5a src/ASF/xmega/drivers/tc/tc.o
                0x0000ab40                __vector_77
 .text.__vector_78
                0x0000ab9a       0x5a src/ASF/xmega/drivers/tc/tc.o
                0x0000ab9a                __vector_78
 .text.__vector_79
                0x0000abf4       0x5a src/ASF/xmega/drivers/tc/tc.o
                0x0000abf4                __vector_79
 .text.__vector_80
                0x0000ac4e       0x5a src/ASF/xmega/drivers/tc/tc.o
                0x0000ac4e                __vector_80
 .text.__vector_81
                0x0000aca8       0x5a src/ASF/xmega/drivers/tc/tc.o
                0x0000aca8                __vector_81
 .text.__vector_82
                0x0000ad02       0x5a src/ASF/xmega/drivers/tc/tc.o
                0x0000ad02                __vector_82
 .text.__vector_83
                0x0000ad5c       0x5a src/ASF/xmega/drivers/tc/tc.o
                0x0000ad5c                __vector_83
 .text.__vector_84
                0x0000adb6       0x5a src/ASF/xmega/drivers/tc/tc.o
                0x0000adb6                __vector_84
 .text.__vector_85
                0x0000ae10       0x5a src/ASF/xmega/drivers/tc/tc.o
                0x0000ae10                __vector_85
 .text.__vector_86
                0x0000ae6a       0x5a src/ASF/xmega/drivers/tc/tc.o
                0x0000ae6a                __vector_86
 .text.__vector_47
                0x0000aec4       0x5a src/ASF/xmega/drivers/tc/tc.o
                0x0000aec4                __vector_47
 .text.__vector_48
                0x0000af1e       0x5a src/ASF/xmega/drivers/tc/tc.o
                0x0000af1e                __vector_48
 .text.__vector_49
                0x0000af78       0x5a src/ASF/xmega/drivers/tc/tc.o
                0x0000af78                __vector_49
 .text.__vector_50
                0x0000afd2       0x5a src/ASF/xmega/drivers/tc/tc.o
                0x0000afd2                __vector_50
 .text.__vector_51
                0x0000b02c       0x5a src/ASF/xmega/drivers/tc/tc.o
                0x0000b02c                __vector_51
 .text.__vector_52
                0x0000b086       0x5a src/ASF/xmega/drivers/tc/tc.o
                0x0000b086                __vector_52
 .text.__vector_53
                0x0000b0e0       0x5a src/ASF/xmega/drivers/tc/tc.o
                0x0000b0e0                __vector_53
 .text.__vector_54
                0x0000b13a       0x5a src/ASF/xmega/drivers/tc/tc.o
                0x0000b13a                __vector_54
 .text.__vector_55
                0x0000b194       0x5a src/ASF/xmega/drivers/tc/tc.o
                0x0000b194                __vector_55
 .text.__vector_56
                0x0000b1ee       0x5a src/ASF/xmega/drivers/tc/tc.o
                0x0000b1ee                __vector_56
 .text.__vector_108
                0x0000b248       0x5a src/ASF/xmega/drivers/tc/tc.o
                0x0000b248                __vector_108
 .text.__vector_109
                0x0000b2a2       0x5a src/ASF/xmega/drivers/tc/tc.o
                0x0000b2a2                __vector_109
 .text.__vector_110
                0x0000b2fc       0x5a src/ASF/xmega/drivers/tc/tc.o
                0x0000b2fc                __vector_110
 .text.__vector_111
                0x0000b356       0x5a src/ASF/xmega/drivers/tc/tc.o
                0x0000b356                __vector_111
 .text.__vector_112
                0x0000b3b0       0x5a src/ASF/xmega/drivers/tc/tc.o
                0x0000b3b0                __vector_112
 .text.__vector_113
                0x0000b40a       0x5a src/ASF/xmega/drivers/tc/tc.o
                0x0000b40a                __vector_113
 .text.tc_enable
                0x0000b464       0xaa src/ASF/xmega/drivers/tc/tc.o
                0x0000b464                tc_enable
 .text.tc_set_overflow_interrupt_callback
                0x0000b50e       0x7c src/ASF/xmega/drivers/tc/tc.o
                0x0000b50e                tc_set_overflow_interrupt_callback
 .text.__vector_46
                0x0000b58a      0x170 src/ASF/xmega/drivers/twi/twim.o
                0x0000b58a                __vector_46
 .text.__vector_13
                0x0000b6fa       0x4e src/ASF/xmega/drivers/twi/twim.o
                0x0000b6fa                __vector_13
 .text.twi_master_init
                0x0000b748       0x2a src/ASF/xmega/drivers/twi/twim.o
                0x0000b748                twi_master_init
 .text.twi_master_transfer
                0x0000b772       0xaa src/ASF/xmega/drivers/twi/twim.o
                0x0000b772                twi_master_transfer
 .text.cpu_irq_save
                0x0000b81c       0x1a src/ASF/xmega/drivers/usb/usb_device.o
 .text.sleepmgr_lock_mode
                0x0000b836       0x24 src/ASF/xmega/drivers/usb/usb_device.o
 .text.sleepmgr_unlock_mode
                0x0000b85a       0x24 src/ASF/xmega/drivers/usb/usb_device.o
 .text.udd_sleep_mode
                0x0000b87e       0x26 src/ASF/xmega/drivers/usb/usb_device.o
 .text.udd_ep_get_ctrl
                0x0000b8a4       0x2e src/ASF/xmega/drivers/usb/usb_device.o
 .text.udd_ctrl_init
                0x0000b8d2       0x4a src/ASF/xmega/drivers/usb/usb_device.o
 .text.udd_ctrl_stall_data
                0x0000b91c       0x1c src/ASF/xmega/drivers/usb/usb_device.o
 .text.udd_ctrl_send_zlp_in
                0x0000b938       0x1c src/ASF/xmega/drivers/usb/usb_device.o
 .text.udd_ctrl_endofrequest
                0x0000b954       0x10 src/ASF/xmega/drivers/usb/usb_device.o
 .text.udd_ep_get_job
                0x0000b964       0x34 src/ASF/xmega/drivers/usb/usb_device.o
 .text.udd_ep_trans_complet
                0x0000b998      0x20c src/ASF/xmega/drivers/usb/usb_device.o
 .text.udd_ctrl_in_sent
                0x0000bba4       0xdc src/ASF/xmega/drivers/usb/usb_device.o
 .text.udd_ctrl_interrupt_tc_setup
                0x0000bc80       0xe6 src/ASF/xmega/drivers/usb/usb_device.o
 .text.udd_disable
                0x0000bd66       0x28 src/ASF/xmega/drivers/usb/usb_device.o
                0x0000bd66                udd_disable
 .text.udd_attach
                0x0000bd8e       0x46 src/ASF/xmega/drivers/usb/usb_device.o
                0x0000bd8e                udd_attach
 .text.udd_enable
                0x0000bdd4       0xdc src/ASF/xmega/drivers/usb/usb_device.o
                0x0000bdd4                udd_enable
 .text.udd_is_high_speed
                0x0000beb0        0x4 src/ASF/xmega/drivers/usb/usb_device.o
                0x0000beb0                udd_is_high_speed
 .text.udd_set_address
                0x0000beb4        0x6 src/ASF/xmega/drivers/usb/usb_device.o
                0x0000beb4                udd_set_address
 .text.udd_getaddress
                0x0000beba        0x6 src/ASF/xmega/drivers/usb/usb_device.o
                0x0000beba                udd_getaddress
 .text.udd_get_frame_number
                0x0000bec0        0xa src/ASF/xmega/drivers/usb/usb_device.o
                0x0000bec0                udd_get_frame_number
 .text.udd_get_micro_frame_number
                0x0000beca        0x6 src/ASF/xmega/drivers/usb/usb_device.o
                0x0000beca                udd_get_micro_frame_number
 .text.udd_set_setup_payload
                0x0000bed0        0xe src/ASF/xmega/drivers/usb/usb_device.o
                0x0000bed0                udd_set_setup_payload
 .text.udd_ep_alloc
                0x0000bede       0xa6 src/ASF/xmega/drivers/usb/usb_device.o
                0x0000bede                udd_ep_alloc
 .text.udd_ep_is_halted
                0x0000bf84        0xe src/ASF/xmega/drivers/usb/usb_device.o
                0x0000bf84                udd_ep_is_halted
 .text.udd_ep_clear_halt
                0x0000bf92       0x3a src/ASF/xmega/drivers/usb/usb_device.o
                0x0000bf92                udd_ep_clear_halt
 .text.udd_ep_run
                0x0000bfcc       0xfc src/ASF/xmega/drivers/usb/usb_device.o
                0x0000bfcc                udd_ep_run
 .text.udd_ep_abort
                0x0000c0c8       0x60 src/ASF/xmega/drivers/usb/usb_device.o
                0x0000c0c8                udd_ep_abort
 .text.udd_ep_free
                0x0000c128       0x12 src/ASF/xmega/drivers/usb/usb_device.o
                0x0000c128                udd_ep_free
 .text.udd_ep_set_halt
                0x0000c13a       0x18 src/ASF/xmega/drivers/usb/usb_device.o
                0x0000c13a                udd_ep_set_halt
 .text.__vector_125
                0x0000c152      0x170 src/ASF/xmega/drivers/usb/usb_device.o
                0x0000c152                __vector_125
 .text.__vector_126
                0x0000c2c2      0x1b2 src/ASF/xmega/drivers/usb/usb_device.o
                0x0000c2c2                __vector_126
 .text.pwm_set_frequency
                0x0000c474       0xd8 src/ASF/xmega/services/pwm/pwm.o
                0x0000c474                pwm_set_frequency
 .text.pwm_init
                0x0000c54c      0x180 src/ASF/xmega/services/pwm/pwm.o
                0x0000c54c                pwm_init
 .text.pwm_start
                0x0000c6cc       0x8c src/ASF/xmega/services/pwm/pwm.o
                0x0000c6cc                pwm_start
 .text.cpu_irq_save
                0x0000c758       0x1a src/main.o
 .text.sleepmgr_enter_sleep
                0x0000c772       0x48 src/main.o
 .text.dma_channel_enable
                0x0000c7ba       0x22 src/main.o
 .text.yield_ms_cb
                0x0000c7dc        0x6 src/main.o
                0x0000c7dc                yield_ms_cb
 .text.isr_tcc1_ovfl
                0x0000c7e2       0x48 src/main.o
                0x0000c7e2                isr_tcc1_ovfl
 .text.isr_adc_a
                0x0000c82a      0x34e src/main.o
                0x0000c82a                isr_adc_a
 .text.task_dac
                0x0000cb78      0x130 src/main.o
 .text.task_adc
                0x0000cca8      0x2b0 src/main.o
 .text.nvm_read_production_signature_row
                0x0000cf58        0xa src/main.o
 .text.adcch_enable_interrupt.isra.10
                0x0000cf62        0xc src/main.o
 .text.isr_adc_b
                0x0000cf6e       0x94 src/main.o
                0x0000cf6e                isr_adc_b
 .text.calc_next_frame.constprop.28
                0x0000d002       0xb4 src/main.o
 .text.isr_dma_dac_ch0_A
                0x0000d0b6        0xc src/main.o
 .text.isr_dma_dac_ch0_B
                0x0000d0c2        0xc src/main.o
 .text.fifo_pull_uint32.constprop.29
                0x0000d0ce       0x56 src/main.o
 .text.tc_init  0x0000d124       0xba src/main.o
 .text.dac_start
                0x0000d1de       0x88 src/main.o
 .text.tc_start
                0x0000d266       0x5e src/main.o
 .text.fifo_push_uint32.constprop.30
                0x0000d2c4       0x56 src/main.o
 .text.dac_init
                0x0000d31a       0xc6 src/main.o
 .text.adc_init
                0x0000d3e0      0x260 src/main.o
 .text.save_globals
                0x0000d640      0x3a2 src/main.o
                0x0000d640                save_globals
 .text.cueBehind
                0x0000d9e2       0x14 src/main.o
                0x0000d9e2                cueBehind
 .text.myStringToFloat
                0x0000d9f6      0x1a2 src/main.o
                0x0000d9f6                myStringToFloat
 .text.myStringToVar
                0x0000db98      0x136 src/main.o
                0x0000db98                myStringToVar
 .text.adc_app_enable
                0x0000dcce       0x46 src/main.o
                0x0000dcce                adc_app_enable
 .text.backlight_mode_pwm
                0x0000dd14       0x40 src/main.o
                0x0000dd14                backlight_mode_pwm
 .text.bias_update
                0x0000dd54        0xa src/main.o
                0x0000dd54                bias_update
 .text.calibration_mode
                0x0000dd5e      0x2f8 src/main.o
                0x0000dd5e                calibration_mode
 .text.dac_app_enable
                0x0000e056       0x8c src/main.o
                0x0000e056                dac_app_enable
 .text.errorBeep_enable
                0x0000e0e2        0x8 src/main.o
                0x0000e0e2                errorBeep_enable
 .text.keyBeep_enable
                0x0000e0ea        0x8 src/main.o
                0x0000e0ea                keyBeep_enable
 .text.pitchTone_mode
                0x0000e0f2        0x8 src/main.o
                0x0000e0f2                pitchTone_mode
 .text.printStatusLines_bitfield
                0x0000e0fa       0x20 src/main.o
                0x0000e0fa                printStatusLines_bitfield
 .text.xoPwm_set
                0x0000e11a       0xe4 src/main.o
                0x0000e11a                xoPwm_set
 .text.sched_getLock
                0x0000e1fe       0x26 src/main.o
                0x0000e1fe                sched_getLock
 .text.sched_freeLock
                0x0000e224       0x14 src/main.o
                0x0000e224                sched_freeLock
 .text.sched_set_alarm
                0x0000e238       0x32 src/main.o
                0x0000e238                sched_set_alarm
 .text.sched_push
                0x0000e26a      0x382 src/main.o
                0x0000e26a                sched_push
 .text.dds_update
                0x0000e5ec      0x1bc src/main.o
                0x0000e5ec                dds_update
 .text.isr_tcc0_ovfl
                0x0000e7a8      0x3ba src/main.o
                0x0000e7a8                isr_tcc0_ovfl
 .text.sched_pop
                0x0000eb62      0x176 src/main.o
                0x0000eb62                sched_pop
 .text.isr_rtc_alarm
                0x0000ecd8        0x4 src/main.o
                0x0000ecd8                isr_rtc_alarm
 .text.yield_ms
                0x0000ecdc       0x4c src/main.o
                0x0000ecdc                yield_ms
 .text.__vector_4
                0x0000ed28      0x1ca src/main.o
                0x0000ed28                __vector_4
 .text.startup.main
                0x0000eef2      0x774 src/main.o
                0x0000eef2                main
 .text.cpu_irq_save
                0x0000f666       0x1a src/ASF/common/services/clock/xmega/sysclk.o
 .text.sysclk_init
                0x0000f680       0xfc src/ASF/common/services/clock/xmega/sysclk.o
                0x0000f680                sysclk_init
 .text.sysclk_enable_module
                0x0000f77c       0x22 src/ASF/common/services/clock/xmega/sysclk.o
                0x0000f77c                sysclk_enable_module
 .text.sysclk_disable_module
                0x0000f79e       0x20 src/ASF/common/services/clock/xmega/sysclk.o
                0x0000f79e                sysclk_disable_module
 .text.sysclk_enable_usb
                0x0000f7be       0x6c src/ASF/common/services/clock/xmega/sysclk.o
                0x0000f7be                sysclk_enable_usb
 .text.sysclk_disable_usb
                0x0000f82a       0x10 src/ASF/common/services/clock/xmega/sysclk.o
                0x0000f82a                sysclk_disable_usb
 .text.cpu_irq_save
                0x0000f83a       0x1a src/ASF/common/services/usb/class/cdc/device/udi_cdc.o
 .text.udi_cdc_comm_disable
                0x0000f854        0xc src/ASF/common/services/usb/class/cdc/device/udi_cdc.o
                0x0000f854                udi_cdc_comm_disable
 .text.udi_cdc_data_setup
                0x0000f860        0x4 src/ASF/common/services/usb/class/cdc/device/udi_cdc.o
                0x0000f860                udi_cdc_data_setup
 .text.udi_cdc_getsetting
                0x0000f864        0x4 src/ASF/common/services/usb/class/cdc/device/udi_cdc.o
                0x0000f864                udi_cdc_getsetting
 .text.udi_cdc_line_coding_received
                0x0000f868        0xa src/ASF/common/services/usb/class/cdc/device/udi_cdc.o
 .text.udi_cdc_data_disable
                0x0000f872       0x18 src/ASF/common/services/usb/class/cdc/device/udi_cdc.o
                0x0000f872                udi_cdc_data_disable
 .text.udi_cdc_comm_enable
                0x0000f88a       0x80 src/ASF/common/services/usb/class/cdc/device/udi_cdc.o
                0x0000f88a                udi_cdc_comm_enable
 .text.udi_cdc_tx_send.isra.1
                0x0000f90a      0x142 src/ASF/common/services/usb/class/cdc/device/udi_cdc.o
 .text.udi_cdc_data_sof_notify
                0x0000fa4c        0x2 src/ASF/common/services/usb/class/cdc/device/udi_cdc.o
                0x0000fa4c                udi_cdc_data_sof_notify
 .text.udi_cdc_data_sent
                0x0000fa4e       0x38 src/ASF/common/services/usb/class/cdc/device/udi_cdc.o
 .text.udi_cdc_comm_setup
                0x0000fa86       0x90 src/ASF/common/services/usb/class/cdc/device/udi_cdc.o
                0x0000fa86                udi_cdc_comm_setup
 .text.udi_cdc_multi_get_nb_received_data
                0x0000fb16       0x26 src/ASF/common/services/usb/class/cdc/device/udi_cdc.o
                0x0000fb16                udi_cdc_multi_get_nb_received_data
 .text.udi_cdc_get_nb_received_data
                0x0000fb3c        0x4 src/ASF/common/services/usb/class/cdc/device/udi_cdc.o
                0x0000fb3c                udi_cdc_get_nb_received_data
 .text.udi_cdc_multi_is_rx_ready
                0x0000fb40        0xe src/ASF/common/services/usb/class/cdc/device/udi_cdc.o
                0x0000fb40                udi_cdc_multi_is_rx_ready
 .text.udi_cdc_rx_start.isra.8
                0x0000fb4e       0x94 src/ASF/common/services/usb/class/cdc/device/udi_cdc.o
 .text.udi_cdc_data_enable
                0x0000fbe2       0x68 src/ASF/common/services/usb/class/cdc/device/udi_cdc.o
                0x0000fbe2                udi_cdc_data_enable
 .text.udi_cdc_data_received
                0x0000fc4a       0x60 src/ASF/common/services/usb/class/cdc/device/udi_cdc.o
 .text.udi_cdc_multi_getc
                0x0000fcaa       0x94 src/ASF/common/services/usb/class/cdc/device/udi_cdc.o
                0x0000fcaa                udi_cdc_multi_getc
 .text.udi_cdc_getc
                0x0000fd3e        0x4 src/ASF/common/services/usb/class/cdc/device/udi_cdc.o
                0x0000fd3e                udi_cdc_getc
 .text.udi_cdc_read_no_polling
                0x0000fd42       0xa6 src/ASF/common/services/usb/class/cdc/device/udi_cdc.o
                0x0000fd42                udi_cdc_read_no_polling
 .text.udi_cdc_multi_get_free_tx_buffer
                0x0000fde8       0x4c src/ASF/common/services/usb/class/cdc/device/udi_cdc.o
                0x0000fde8                udi_cdc_multi_get_free_tx_buffer
 .text.udi_cdc_multi_is_tx_ready
                0x0000fe34        0xe src/ASF/common/services/usb/class/cdc/device/udi_cdc.o
                0x0000fe34                udi_cdc_multi_is_tx_ready
 .text.udi_cdc_is_tx_ready
                0x0000fe42        0x4 src/ASF/common/services/usb/class/cdc/device/udi_cdc.o
                0x0000fe42                udi_cdc_is_tx_ready
 .text.udi_cdc_multi_putc
                0x0000fe46       0x90 src/ASF/common/services/usb/class/cdc/device/udi_cdc.o
                0x0000fe46                udi_cdc_multi_putc
 .text.udi_cdc_putc
                0x0000fed6        0x6 src/ASF/common/services/usb/class/cdc/device/udi_cdc.o
                0x0000fed6                udi_cdc_putc
 .text.udc_valid_address
                0x0000fedc        0xa src/ASF/common/services/usb/udc/udc.o
 .text.udc_update_iface_desc
                0x0000fee6       0x66 src/ASF/common/services/usb/udc/udc.o
 .text.udc_next_desc_in_iface.constprop.3
                0x0000ff4c       0x40 src/ASF/common/services/usb/udc/udc.o
 .text.udc_iface_enable
                0x0000ff8c       0x68 src/ASF/common/services/usb/udc/udc.o
 .text.udc_iface_disable
                0x0000fff4       0x80 src/ASF/common/services/usb/udc/udc.o
 .text.udc_start
                0x00010074        0x4 src/ASF/common/services/usb/udc/udc.o
                0x00010074                udc_start
 .text.udc_reset
                0x00010078       0x48 src/ASF/common/services/usb/udc/udc.o
                0x00010078                udc_reset
 .text.udc_stop
                0x000100c0        0x6 src/ASF/common/services/usb/udc/udc.o
                0x000100c0                udc_stop
 .text.udc_sof_notify
                0x000100c6       0x4a src/ASF/common/services/usb/udc/udc.o
                0x000100c6                udc_sof_notify
 .text.udc_process_setup
                0x00010110      0x520 src/ASF/common/services/usb/udc/udc.o
                0x00010110                udc_process_setup
 .text._read    0x00010630       0x32 src/ASF/common/utils/stdio/read.o
                0x00010630                _read
 .text.stdio_usb_getchar
                0x00010662       0x1e src/ASF/common/utils/stdio/stdio_usb/stdio_usb.o
                0x00010662                stdio_usb_getchar
 .text.stdio_usb_putchar
                0x00010680       0x2e src/ASF/common/utils/stdio/stdio_usb/stdio_usb.o
                0x00010680                stdio_usb_putchar
 .text.stdio_usb_enable
                0x000106ae        0x8 src/ASF/common/utils/stdio/stdio_usb/stdio_usb.o
                0x000106ae                stdio_usb_enable
 .text.stdio_usb_disable
                0x000106b6        0x6 src/ASF/common/utils/stdio/stdio_usb/stdio_usb.o
                0x000106b6                stdio_usb_disable
 .text.stdio_usb_init
                0x000106bc       0x2e src/ASF/common/utils/stdio/stdio_usb/stdio_usb.o
                0x000106bc                stdio_usb_init
 .text._write   0x000106ea       0x24 src/ASF/common/utils/stdio/write.o
                0x000106ea                _write
 .text.nvm_wait_until_ready
                0x0001070e        0xa src/ASF/xmega/drivers/nvm/nvm.o
 .text.nvm_issue_command
                0x00010718       0x20 src/ASF/xmega/drivers/nvm/nvm.o
 .text.nvm_eeprom_read_buffer
                0x00010738       0x46 src/ASF/xmega/drivers/nvm/nvm.o
                0x00010738                nvm_eeprom_read_buffer
 .text.nvm_eeprom_flush_buffer
                0x0001077e       0x1a src/ASF/xmega/drivers/nvm/nvm.o
                0x0001077e                nvm_eeprom_flush_buffer
 .text.nvm_eeprom_load_byte_to_buffer
                0x00010798       0x28 src/ASF/xmega/drivers/nvm/nvm.o
                0x00010798                nvm_eeprom_load_byte_to_buffer
 .text.nvm_eeprom_write_byte
                0x000107c0       0x44 src/ASF/xmega/drivers/nvm/nvm.o
                0x000107c0                nvm_eeprom_write_byte
 .text.nvm_eeprom_load_page_to_buffer
                0x00010804       0x24 src/ASF/xmega/drivers/nvm/nvm.o
                0x00010804                nvm_eeprom_load_page_to_buffer
 .text.nvm_eeprom_atomic_write_page
                0x00010828       0x1e src/ASF/xmega/drivers/nvm/nvm.o
                0x00010828                nvm_eeprom_atomic_write_page
 .text.nvm_eeprom_erase_and_write_buffer
                0x00010846       0x78 src/ASF/xmega/drivers/nvm/nvm.o
                0x00010846                nvm_eeprom_erase_and_write_buffer
 .text.nvm_flash_read_buffer
                0x000108be       0x4a src/ASF/xmega/drivers/nvm/nvm.o
                0x000108be                nvm_flash_read_buffer
 .text.nvm_user_sig_read_buffer
                0x00010908       0x3e src/ASF/xmega/drivers/nvm/nvm.o
                0x00010908                nvm_user_sig_read_buffer
 .text.nvm_user_sig_write_buffer
                0x00010946      0x12e src/ASF/xmega/drivers/nvm/nvm.o
                0x00010946                nvm_user_sig_write_buffer
 .text.nvm_flash_erase_and_write_buffer
                0x00010a74      0x144 src/ASF/xmega/drivers/nvm/nvm.o
                0x00010a74                nvm_flash_erase_and_write_buffer
 .text.nvm_read_byte
                0x00010bb8       0x14 src/ASF/xmega/drivers/nvm/nvm_asm.o
                0x00010bb8                nvm_read_byte
 .text.ccp_write_io
                0x00010bcc        0xc src/ASF/xmega/drivers/cpu/ccp.o
                0x00010bcc                ccp_write_io
 .text.avr-libc
                0x00010bd8      0x740 c:/program files (x86)/atmel/studio/7.0/toolchain/avr8/avr8-gnu-toolchain/bin/../lib/gcc/avr/5.4.0/../../../../avr/lib/avrxmega6\libprintf_flt.a(vfprintf_flt.o)
                0x00010bd8                vfprintf
 .text.avr-libc.fplib
                0x00011318        0xa c:/program files (x86)/atmel/studio/7.0/toolchain/avr8/avr8-gnu-toolchain/bin/../lib/gcc/avr/5.4.0/../../../../avr/lib/avrxmega6\libm.a(addsf3.o)
                0x00011318                __subsf3
                0x0001131a                __addsf3
 .text.avr-libc.fplib
                0x00011322       0xc0 c:/program files (x86)/atmel/studio/7.0/toolchain/avr8/avr8-gnu-toolchain/bin/../lib/gcc/avr/5.4.0/../../../../avr/lib/avrxmega6\libm.a(addsf3x.o)
                0x0001133c                __addsf3x
 .text.avr-libc.fplib
                0x000113e2        0x8 c:/program files (x86)/atmel/studio/7.0/toolchain/avr8/avr8-gnu-toolchain/bin/../lib/gcc/avr/5.4.0/../../../../avr/lib/avrxmega6\libm.a(cmpsf2.o)
                0x000113e2                __nesf2
                0x000113e2                __eqsf2
                0x000113e2                __cmpsf2
                0x000113e2                __ltsf2
                0x000113e2                __lesf2
 .text.avr-libc.fplib
                0x000113ea        0x6 c:/program files (x86)/atmel/studio/7.0/toolchain/avr8/avr8-gnu-toolchain/bin/../lib/gcc/avr/5.4.0/../../../../avr/lib/avrxmega6\libm.a(cos.o)
                0x000113ea                cos
 .text.avr-libc.fplib
                0x000113f0        0x4 c:/program files (x86)/atmel/studio/7.0/toolchain/avr8/avr8-gnu-toolchain/bin/../lib/gcc/avr/5.4.0/../../../../avr/lib/avrxmega6\libm.a(divsf3.o)
                0x000113f0                __divsf3
 .text.avr-libc.fplib
                0x000113f4       0xcc c:/program files (x86)/atmel/studio/7.0/toolchain/avr8/avr8-gnu-toolchain/bin/../lib/gcc/avr/5.4.0/../../../../avr/lib/avrxmega6\libm.a(divsf3x.o)
                0x0001140a                __divsf3x
                0x0001140e                __divsf3_pse
 .text.avr-libc.fplib
                0x000114c0        0xa c:/program files (x86)/atmel/studio/7.0/toolchain/avr8/avr8-gnu-toolchain/bin/../lib/gcc/avr/5.4.0/../../../../avr/lib/avrxmega6\libm.a(fixsfsi.o)
                0x000114c0                __fixsfsi
 .text.avr-libc.fplib
                0x000114ca       0x58 c:/program files (x86)/atmel/studio/7.0/toolchain/avr8/avr8-gnu-toolchain/bin/../lib/gcc/avr/5.4.0/../../../../avr/lib/avrxmega6\libm.a(fixunssfsi.o)
                0x000114ca                __fixunssfsi
 .text.avr-libc.fplib
                0x00011522       0x7a c:/program files (x86)/atmel/studio/7.0/toolchain/avr8/avr8-gnu-toolchain/bin/../lib/gcc/avr/5.4.0/../../../../avr/lib/avrxmega6\libm.a(floatsisf.o)
                0x00011522                __floatunsisf
                0x00011526                __floatsisf
 .text.avr-libc.fplib
                0x0001159c       0x48 c:/program files (x86)/atmel/studio/7.0/toolchain/avr8/avr8-gnu-toolchain/bin/../lib/gcc/avr/5.4.0/../../../../avr/lib/avrxmega6\libm.a(fp_cmp.o)
                0x0001159c                __fp_cmp
 .text.avr-libc.fplib
                0x000115e4        0xc c:/program files (x86)/atmel/studio/7.0/toolchain/avr8/avr8-gnu-toolchain/bin/../lib/gcc/avr/5.4.0/../../../../avr/lib/avrxmega6\libm.a(fp_inf.o)
                0x000115e4                __fp_inf
 .text.avr-libc.fplib
                0x000115f0        0x6 c:/program files (x86)/atmel/studio/7.0/toolchain/avr8/avr8-gnu-toolchain/bin/../lib/gcc/avr/5.4.0/../../../../avr/lib/avrxmega6\libm.a(fp_nan.o)
                0x000115f0                __fp_nan
 .text.avr-libc.fplib
                0x000115f6        0xe c:/program files (x86)/atmel/studio/7.0/toolchain/avr8/avr8-gnu-toolchain/bin/../lib/gcc/avr/5.4.0/../../../../avr/lib/avrxmega6\libm.a(fp_pscA.o)
                0x000115f6                __fp_pscA
 .text.avr-libc.fplib
                0x00011604        0xe c:/program files (x86)/atmel/studio/7.0/toolchain/avr8/avr8-gnu-toolchain/bin/../lib/gcc/avr/5.4.0/../../../../avr/lib/avrxmega6\libm.a(fp_pscB.o)
                0x00011604                __fp_pscB
 .text.avr-libc.fplib
                0x00011612       0x50 c:/program files (x86)/atmel/studio/7.0/toolchain/avr8/avr8-gnu-toolchain/bin/../lib/gcc/avr/5.4.0/../../../../avr/lib/avrxmega6\libm.a(fp_rempio2.o)
                0x00011614                __fp_rempio2
 .text.avr-libc.fplib
                0x00011662       0x22 c:/program files (x86)/atmel/studio/7.0/toolchain/avr8/avr8-gnu-toolchain/bin/../lib/gcc/avr/5.4.0/../../../../avr/lib/avrxmega6\libm.a(fp_round.o)
                0x00011662                __fp_round
 .text.avr-libc.fplib
                0x00011684       0x22 c:/program files (x86)/atmel/studio/7.0/toolchain/avr8/avr8-gnu-toolchain/bin/../lib/gcc/avr/5.4.0/../../../../avr/lib/avrxmega6\libm.a(fp_sinus.o)
                0x00011684                __fp_sinus
 .text.avr-libc.fplib
                0x000116a6       0x44 c:/program files (x86)/atmel/studio/7.0/toolchain/avr8/avr8-gnu-toolchain/bin/../lib/gcc/avr/5.4.0/../../../../avr/lib/avrxmega6\libm.a(fp_split3.o)
                0x000116a6                __fp_split3
                0x000116b6                __fp_splitA
 .text.avr-libc.fplib
                0x000116ea        0xe c:/program files (x86)/atmel/studio/7.0/toolchain/avr8/avr8-gnu-toolchain/bin/../lib/gcc/avr/5.4.0/../../../../avr/lib/avrxmega6\libm.a(fp_zero.o)
                0x000116ea                __fp_zero
                0x000116ec                __fp_szero
 .text.avr-libc.fplib
                0x000116f8        0x8 c:/program files (x86)/atmel/studio/7.0/toolchain/avr8/avr8-gnu-toolchain/bin/../lib/gcc/avr/5.4.0/../../../../avr/lib/avrxmega6\libm.a(gesf2.o)
                0x000116f8                __gesf2
                0x000116f8                __gtsf2
 .text.avr-libc.fplib
                0x00011700        0x4 c:/program files (x86)/atmel/studio/7.0/toolchain/avr8/avr8-gnu-toolchain/bin/../lib/gcc/avr/5.4.0/../../../../avr/lib/avrxmega6\libm.a(mulsf3.o)
                0x00011700                __mulsf3
 .text.avr-libc.fplib
                0x00011704       0xc2 c:/program files (x86)/atmel/studio/7.0/toolchain/avr8/avr8-gnu-toolchain/bin/../lib/gcc/avr/5.4.0/../../../../avr/lib/avrxmega6\libm.a(mulsf3x.o)
                0x00011718                __mulsf3x
                0x0001171c                __mulsf3_pse
 .text.avr-libc.fplib
                0x000117c6       0x98 c:/program files (x86)/atmel/studio/7.0/toolchain/avr8/avr8-gnu-toolchain/bin/../lib/gcc/avr/5.4.0/../../../../avr/lib/avrxmega6\libm.a(pow.o)
                0x000117c6                pow
 .text.avr-libc.fplib
                0x0001185e        0xc c:/program files (x86)/atmel/studio/7.0/toolchain/avr8/avr8-gnu-toolchain/bin/../lib/gcc/avr/5.4.0/../../../../avr/lib/avrxmega6\libm.a(sin.o)
                0x0001185e                sin
 .text.avr-libc.fplib
                0x0001186a       0x62 c:/program files (x86)/atmel/studio/7.0/toolchain/avr8/avr8-gnu-toolchain/bin/../lib/gcc/avr/5.4.0/../../../../avr/lib/avrxmega6\libm.a(exp.o)
                0x00011874                exp
 .text.avr-libc.fplib
                0x000118cc       0x1c c:/program files (x86)/atmel/studio/7.0/toolchain/avr8/avr8-gnu-toolchain/bin/../lib/gcc/avr/5.4.0/../../../../avr/lib/avrxmega6\libm.a(fp_mpack.o)
                0x000118cc                __fp_mpack
                0x000118d0                __fp_mpack_finite
 .text.avr-libc.fplib
                0x000118e8       0x4a c:/program files (x86)/atmel/studio/7.0/toolchain/avr8/avr8-gnu-toolchain/bin/../lib/gcc/avr/5.4.0/../../../../avr/lib/avrxmega6\libm.a(fp_powser.o)
                0x000118e8                __fp_powser
 .text.avr-libc.fplib
                0x00011932       0x22 c:/program files (x86)/atmel/studio/7.0/toolchain/avr8/avr8-gnu-toolchain/bin/../lib/gcc/avr/5.4.0/../../../../avr/lib/avrxmega6\libm.a(fp_powsodd.o)
                0x00011932                __fp_powsodd
 .text.avr-libc.fplib
                0x00011954        0xe c:/program files (x86)/atmel/studio/7.0/toolchain/avr8/avr8-gnu-toolchain/bin/../lib/gcc/avr/5.4.0/../../../../avr/lib/avrxmega6\libm.a(inverse.o)
                0x00011954                inverse
 .text.avr-libc.fplib
                0x00011962       0x6c c:/program files (x86)/atmel/studio/7.0/toolchain/avr8/avr8-gnu-toolchain/bin/../lib/gcc/avr/5.4.0/../../../../avr/lib/avrxmega6\libm.a(ldexp.o)
                0x00011966                ldexp
 .text.avr-libc.fplib
                0x000119ce       0x8a c:/program files (x86)/atmel/studio/7.0/toolchain/avr8/avr8-gnu-toolchain/bin/../lib/gcc/avr/5.4.0/../../../../avr/lib/avrxmega6\libm.a(log.o)
                0x000119d8                log
 .text.avr-libc.fplib
                0x00011a58       0x66 c:/program files (x86)/atmel/studio/7.0/toolchain/avr8/avr8-gnu-toolchain/bin/../lib/gcc/avr/5.4.0/../../../../avr/lib/avrxmega6\libm.a(modf.o)
                0x00011a58                modf
                0x00011a58                modff
 .text.libgcc.mul
                0x00011abe       0x1e c:/program files (x86)/atmel/studio/7.0/toolchain/avr8/avr8-gnu-toolchain/bin/../lib/gcc/avr/5.4.0/avrxmega6\libgcc.a(_mulsi3.o)
                0x00011abe                __mulsi3
 .text.libgcc.div
                0x00011adc       0x28 c:/program files (x86)/atmel/studio/7.0/toolchain/avr8/avr8-gnu-toolchain/bin/../lib/gcc/avr/5.4.0/avrxmega6\libgcc.a(_udivmodhi4.o)
                0x00011adc                __udivmodhi4
 .text.libgcc.div
                0x00011b04       0x26 c:/program files (x86)/atmel/studio/7.0/toolchain/avr8/avr8-gnu-toolchain/bin/../lib/gcc/avr/5.4.0/avrxmega6\libgcc.a(_divmodhi4.o)
                0x00011b04                _div
                0x00011b04                __divmodhi4
 .text.libgcc.div
                0x00011b2a       0x44 c:/program files (x86)/atmel/studio/7.0/toolchain/avr8/avr8-gnu-toolchain/bin/../lib/gcc/avr/5.4.0/avrxmega6\libgcc.a(_udivmodsi4.o)
                0x00011b2a                __udivmodsi4
 .text.libgcc.div
                0x00011b6e       0x28 c:/program files (x86)/atmel/studio/7.0/toolchain/avr8/avr8-gnu-toolchain/bin/../lib/gcc/avr/5.4.0/avrxmega6\libgcc.a(_divmodsi4.o)
                0x00011b6e                __divmodsi4
 .text.libgcc.div
                0x00011b96       0x10 c:/program files (x86)/atmel/studio/7.0/toolchain/avr8/avr8-gnu-toolchain/bin/../lib/gcc/avr/5.4.0/avrxmega6\libgcc.a(_negsi2.o)
                0x00011b96                __negsi2
 .text.libgcc   0x00011ba6       0x10 c:/program files (x86)/atmel/studio/7.0/toolchain/avr8/avr8-gnu-toolchain/bin/../lib/gcc/avr/5.4.0/avrxmega6\libgcc.a(_tablejump2.o)
                0x00011ba6                __tablejump2__
 .text.libgcc.mul
                0x00011bb6        0xc c:/program files (x86)/atmel/studio/7.0/toolchain/avr8/avr8-gnu-toolchain/bin/../lib/gcc/avr/5.4.0/avrxmega6\libgcc.a(_mulhisi3.o)
                0x00011bb6                __mulhisi3
 .text.libgcc.mul
                0x00011bc2       0x1e c:/program files (x86)/atmel/studio/7.0/toolchain/avr8/avr8-gnu-toolchain/bin/../lib/gcc/avr/5.4.0/avrxmega6\libgcc.a(_umulhisi3.o)
                0x00011bc2                __umulhisi3
 .text.libgcc.mul
                0x00011be0        0xc c:/program files (x86)/atmel/studio/7.0/toolchain/avr8/avr8-gnu-toolchain/bin/../lib/gcc/avr/5.4.0/avrxmega6\libgcc.a(_usmulhisi3.o)
                0x00011be0                __usmulhisi3
                0x00011be2                __usmulhisi3_tail
 .text.libgcc.mul
                0x00011bec       0x14 c:/program files (x86)/atmel/studio/7.0/toolchain/avr8/avr8-gnu-toolchain/bin/../lib/gcc/avr/5.4.0/avrxmega6\libgcc.a(_muluhisi3.o)
                0x00011bec                __muluhisi3
 .text.libgcc.mul
                0x00011c00       0x92 c:/program files (x86)/atmel/studio/7.0/toolchain/avr8/avr8-gnu-toolchain/bin/../lib/gcc/avr/5.4.0/avrxmega6\libgcc.a(_muldi3.o)
                0x00011c00                __muldi3
 .text.libgcc.mul
                0x00011c92       0x10 c:/program files (x86)/atmel/studio/7.0/toolchain/avr8/avr8-gnu-toolchain/bin/../lib/gcc/avr/5.4.0/avrxmega6\libgcc.a(_muldi3_6.o)
                0x00011c92                __muldi3_6
 .text.libgcc.mul
                0x00011ca2       0x1a c:/program files (x86)/atmel/studio/7.0/toolchain/avr8/avr8-gnu-toolchain/bin/../lib/gcc/avr/5.4.0/avrxmega6\libgcc.a(_mulsidi3.o)
                0x00011ca2                __mulsidi3
 .text.libgcc.mul
                0x00011cbc       0x4e c:/program files (x86)/atmel/studio/7.0/toolchain/avr8/avr8-gnu-toolchain/bin/../lib/gcc/avr/5.4.0/avrxmega6\libgcc.a(_umulsidi3.o)
                0x00011cbc                __umulsidi3
                0x00011cbe                __umulsidi3_helper
 .text.libgcc.div
                0x00011d0a       0x56 c:/program files (x86)/atmel/studio/7.0/toolchain/avr8/avr8-gnu-toolchain/bin/../lib/gcc/avr/5.4.0/avrxmega6\libgcc.a(_divdi3.o)
                0x00011d0a                __moddi3
                0x00011d0e                __divdi3
                0x00011d10                __divdi3_moddi3
 .text.libgcc.div
                0x00011d60       0x1a c:/program files (x86)/atmel/studio/7.0/toolchain/avr8/avr8-gnu-toolchain/bin/../lib/gcc/avr/5.4.0/avrxmega6\libgcc.a(_udivdi3.o)
                0x00011d60                __umoddi3
                0x00011d64                __udivdi3
                0x00011d66                __udivdi3_umoddi3
 .text.libgcc.div
                0x00011d7a       0xa2 c:/program files (x86)/atmel/studio/7.0/toolchain/avr8/avr8-gnu-toolchain/bin/../lib/gcc/avr/5.4.0/avrxmega6\libgcc.a(_udivmod64.o)
                0x00011d7a                __udivmod64
 .text.libgcc   0x00011e1c       0x20 c:/program files (x86)/atmel/studio/7.0/toolchain/avr8/avr8-gnu-toolchain/bin/../lib/gcc/avr/5.4.0/avrxmega6\libgcc.a(_negdi2.o)
                0x00011e1c                __negdi2
 .text.libgcc.prologue
                0x00011e3c       0x32 c:/program files (x86)/atmel/studio/7.0/toolchain/avr8/avr8-gnu-toolchain/bin/../lib/gcc/avr/5.4.0/avrxmega6\libgcc.a(_prologue.o)
                0x00011e3c                __prologue_saves__
 .text.libgcc.prologue
                0x00011e6e       0x30 c:/program files (x86)/atmel/studio/7.0/toolchain/avr8/avr8-gnu-toolchain/bin/../lib/gcc/avr/5.4.0/avrxmega6\libgcc.a(_epilogue.o)
                0x00011e6e                __epilogue_restores__
 .text.libgcc.builtins
                0x00011e9e       0x32 c:/program files (x86)/atmel/studio/7.0/toolchain/avr8/avr8-gnu-toolchain/bin/../lib/gcc/avr/5.4.0/avrxmega6\libgcc.a(_ashldi3.o)
                0x00011e9e                __ashldi3
 .text.libgcc.builtins
                0x00011ed0       0x3c c:/program files (x86)/atmel/studio/7.0/toolchain/avr8/avr8-gnu-toolchain/bin/../lib/gcc/avr/5.4.0/avrxmega6\libgcc.a(_ashrdi3.o)
                0x00011ed0                __ashrdi3
                0x00011ed4                __lshrdi3
 .text.libgcc   0x00011f0c       0x12 c:/program files (x86)/atmel/studio/7.0/toolchain/avr8/avr8-gnu-toolchain/bin/../lib/gcc/avr/5.4.0/avrxmega6\libgcc.a(_adddi3.o)
                0x00011f0c                __adddi3
 .text.libgcc   0x00011f1e       0x18 c:/program files (x86)/atmel/studio/7.0/toolchain/avr8/avr8-gnu-toolchain/bin/../lib/gcc/avr/5.4.0/avrxmega6\libgcc.a(_adddi3_s8.o)
                0x00011f1e                __adddi3_s8
 .text.libgcc   0x00011f36       0x12 c:/program files (x86)/atmel/studio/7.0/toolchain/avr8/avr8-gnu-toolchain/bin/../lib/gcc/avr/5.4.0/avrxmega6\libgcc.a(_subdi3.o)
                0x00011f36                __subdi3
 .text.libgcc   0x00011f48       0x18 c:/program files (x86)/atmel/studio/7.0/toolchain/avr8/avr8-gnu-toolchain/bin/../lib/gcc/avr/5.4.0/avrxmega6\libgcc.a(_cmpdi2_s8.o)
                0x00011f48                __cmpdi2_s8
 .text.avr-libc
                0x00011f60      0x256 c:/program files (x86)/atmel/studio/7.0/toolchain/avr8/avr8-gnu-toolchain/bin/../lib/gcc/avr/5.4.0/../../../../avr/lib/avrxmega6\libc.a(strtol.o)
                0x00011f60                strtol
 .text.avr-libc
                0x000121b6        0x6 c:/program files (x86)/atmel/studio/7.0/toolchain/avr8/avr8-gnu-toolchain/bin/../lib/gcc/avr/5.4.0/../../../../avr/lib/avrxmega6\libc.a(atof.o)
                0x000121b6                atof
 .text.avr-libc
                0x000121bc       0x3a c:/program files (x86)/atmel/studio/7.0/toolchain/avr8/avr8-gnu-toolchain/bin/../lib/gcc/avr/5.4.0/../../../../avr/lib/avrxmega6\libc.a(atoi.o)
                0x000121bc                atoi
 .text.avr-libc
                0x000121f6       0x4c c:/program files (x86)/atmel/studio/7.0/toolchain/avr8/avr8-gnu-toolchain/bin/../lib/gcc/avr/5.4.0/../../../../avr/lib/avrxmega6\libc.a(atol.o)
                0x000121f6                atol
 .text.avr-libc
                0x00012242      0x1b0 c:/program files (x86)/atmel/studio/7.0/toolchain/avr8/avr8-gnu-toolchain/bin/../lib/gcc/avr/5.4.0/../../../../avr/lib/avrxmega6\libc.a(ftoa_engine.o)
                0x00012242                __ftoa_engine
 .text.avr-libc
                0x000123f2       0x10 c:/program files (x86)/atmel/studio/7.0/toolchain/avr8/avr8-gnu-toolchain/bin/../lib/gcc/avr/5.4.0/../../../../avr/lib/avrxmega6\libc.a(isspace.o)
                0x000123f2                isspace
 .text.avr-libc
                0x00012402        0xe c:/program files (x86)/atmel/studio/7.0/toolchain/avr8/avr8-gnu-toolchain/bin/../lib/gcc/avr/5.4.0/../../../../avr/lib/avrxmega6\libc.a(strcpy_P.o)
                0x00012402                strcpy_P
 .text.avr-libc
                0x00012410       0x30 c:/program files (x86)/atmel/studio/7.0/toolchain/avr8/avr8-gnu-toolchain/bin/../lib/gcc/avr/5.4.0/../../../../avr/lib/avrxmega6\libc.a(strncasecmp_P.o)
                0x00012410                strncasecmp_P
 .text.avr-libc
                0x00012440       0x1c c:/program files (x86)/atmel/studio/7.0/toolchain/avr8/avr8-gnu-toolchain/bin/../lib/gcc/avr/5.4.0/../../../../avr/lib/avrxmega6\libc.a(strncmp_P.o)
                0x00012440                strncmp_P
 .text.avr-libc
                0x0001245c       0x16 c:/program files (x86)/atmel/studio/7.0/toolchain/avr8/avr8-gnu-toolchain/bin/../lib/gcc/avr/5.4.0/../../../../avr/lib/avrxmega6\libc.a(strnlen_P.o)
                0x0001245c                strnlen_P
 .text.avr-libc
                0x00012472       0x34 c:/program files (x86)/atmel/studio/7.0/toolchain/avr8/avr8-gnu-toolchain/bin/../lib/gcc/avr/5.4.0/../../../../avr/lib/avrxmega6\libc.a(strstr_P.o)
                0x00012472                strstr_P
 .text.avr-libc
                0x000124a6       0x1a c:/program files (x86)/atmel/studio/7.0/toolchain/avr8/avr8-gnu-toolchain/bin/../lib/gcc/avr/5.4.0/../../../../avr/lib/avrxmega6\libc.a(memchr.o)
                0x000124a6                memchr
 .text.avr-libc
                0x000124c0       0x12 c:/program files (x86)/atmel/studio/7.0/toolchain/avr8/avr8-gnu-toolchain/bin/../lib/gcc/avr/5.4.0/../../../../avr/lib/avrxmega6\libc.a(memcpy.o)
                0x000124c0                memcpy
 .text.avr-libc
                0x000124d2       0x16 c:/program files (x86)/atmel/studio/7.0/toolchain/avr8/avr8-gnu-toolchain/bin/../lib/gcc/avr/5.4.0/../../../../avr/lib/avrxmega6\libc.a(strchr.o)
                0x000124d2                strchr
 .text.avr-libc
                0x000124e8       0x16 c:/program files (x86)/atmel/studio/7.0/toolchain/avr8/avr8-gnu-toolchain/bin/../lib/gcc/avr/5.4.0/../../../../avr/lib/avrxmega6\libc.a(strnlen.o)
                0x000124e8                strnlen
 .text.avr-libc
                0x000124fe       0x2a c:/program files (x86)/atmel/studio/7.0/toolchain/avr8/avr8-gnu-toolchain/bin/../lib/gcc/avr/5.4.0/../../../../avr/lib/avrxmega6\libc.a(mulsi10.o)
                0x000124fe                __mulsi_const_10
 .text.avr-libc
                0x00012528       0x10 c:/program files (x86)/atmel/studio/7.0/toolchain/avr8/avr8-gnu-toolchain/bin/../lib/gcc/avr/5.4.0/../../../../avr/lib/avrxmega6\libc.a(mul10.o)
                0x00012528                __mulhi_const_10
 .text.avr-libc
                0x00012538       0x94 c:/program files (x86)/atmel/studio/7.0/toolchain/avr8/avr8-gnu-toolchain/bin/../lib/gcc/avr/5.4.0/../../../../avr/lib/avrxmega6\libc.a(fdevopen.o)
                0x00012538                fdevopen
 .text.avr-libc
                0x000125cc       0x78 c:/program files (x86)/atmel/studio/7.0/toolchain/avr8/avr8-gnu-toolchain/bin/../lib/gcc/avr/5.4.0/../../../../avr/lib/avrxmega6\libc.a(fputc.o)
                0x000125cc                fputc
 .text.avr-libc
                0x00012644       0x6e c:/program files (x86)/atmel/studio/7.0/toolchain/avr8/avr8-gnu-toolchain/bin/../lib/gcc/avr/5.4.0/../../../../avr/lib/avrxmega6\libc.a(snprintf_p.o)
                0x00012644                snprintf_P
 .text.avr-libc
                0x000126b2       0x52 c:/program files (x86)/atmel/studio/7.0/toolchain/avr8/avr8-gnu-toolchain/bin/../lib/gcc/avr/5.4.0/../../../../avr/lib/avrxmega6\libc.a(sprintf_p.o)
                0x000126b2                sprintf_P
 .text.avr-libc
                0x00012704       0xbc c:/program files (x86)/atmel/studio/7.0/toolchain/avr8/avr8-gnu-toolchain/bin/../lib/gcc/avr/5.4.0/../../../../avr/lib/avrxmega6\libc.a(ultoa_invert.o)
                0x00012704                __ultoa_invert
 .text.avr-libc
                0x000127c0       0x34 c:/program files (x86)/atmel/studio/7.0/toolchain/avr8/avr8-gnu-toolchain/bin/../lib/gcc/avr/5.4.0/../../../../avr/lib/avrxmega6\libc.a(calloc.o)
                0x000127c0                calloc
 .text.avr-libc
                0x000127f4      0x242 c:/program files (x86)/atmel/studio/7.0/toolchain/avr8/avr8-gnu-toolchain/bin/../lib/gcc/avr/5.4.0/../../../../avr/lib/avrxmega6\libc.a(malloc.o)
                0x000127f4                malloc
                0x00012924                free
 .text.avr-libc
                0x00012a36      0x2ae c:/program files (x86)/atmel/studio/7.0/toolchain/avr8/avr8-gnu-toolchain/bin/../lib/gcc/avr/5.4.0/../../../../avr/lib/avrxmega6\libc.a(strtod.o)
                0x00012a36                strtod
 .text.avr-libc
                0x00012ce4        0x6 c:/program files (x86)/atmel/studio/7.0/toolchain/avr8/avr8-gnu-toolchain/bin/../lib/gcc/avr/5.4.0/../../../../avr/lib/avrxmega6\libc.a(cty_isfalse.o)
                0x00012ce4                __ctype_isfalse
                0x00012ce8                __ctype_istrue
 .text.avr-libc
                0x00012cea        0xe c:/program files (x86)/atmel/studio/7.0/toolchain/avr8/avr8-gnu-toolchain/bin/../lib/gcc/avr/5.4.0/../../../../avr/lib/avrxmega6\libc.a(memset.o)
                0x00012cea                memset
                0x00012cf8                . = ALIGN (0x2)
 *(.fini9)
 .fini9         0x00012cf8        0x0 c:/program files (x86)/atmel/studio/7.0/toolchain/avr8/avr8-gnu-toolchain/bin/../lib/gcc/avr/5.4.0/avrxmega6\libgcc.a(_exit.o)
                0x00012cf8                _exit
                0x00012cf8                exit
 *(.fini9)
 *(.fini8)
 *(.fini8)
 *(.fini7)
 *(.fini7)
 *(.fini6)
 *(.fini6)
 *(.fini5)
 *(.fini5)
 *(.fini4)
 *(.fini4)
 *(.fini3)
 *(.fini3)
 *(.fini2)
 *(.fini2)
 *(.fini1)
 *(.fini1)
 *(.fini0)
 .fini0         0x00012cf8        0x4 c:/program files (x86)/atmel/studio/7.0/toolchain/avr8/avr8-gnu-toolchain/bin/../lib/gcc/avr/5.4.0/avrxmega6\libgcc.a(_exit.o)
 *(.fini0)
                0x00012cfc                _etext = .

.BOOT           0x00012cfc       0x44
 .BOOT          0x00012cfc       0x44 src/ASF/xmega/drivers/nvm/nvm_asm.o
                0x00012cfc                nvm_common_spm
                0x00012d1a                nvm_flash_load_word_to_buffer

.data           0x00802000      0x13c load address 0x00012d40
                0x00802000                PROVIDE (__data_start, .)
 *(.data)
 .data          0x00802000        0x6 c:/program files (x86)/atmel/studio/7.0/toolchain/avr8/avr8-gnu-toolchain/bin/../lib/gcc/avr/5.4.0/../../../../avr/lib/avrxmega6\libc.a(malloc.o)
                0x00802000                __malloc_heap_end
                0x00802002                __malloc_heap_start
                0x00802004                __malloc_margin
 *(.data*)
 .data.s_twi1_baro_p_100.8518
                0x00802006        0x4 src/twi.o
 .data.s_step.8203
                0x0080200a        0x1 src/twi.o
 .data.dds1_reg
                0x0080200b        0x4 src/main.o
 .data.dds1_freq_mHz
                0x0080200f        0x4 src/main.o
 .data.dds0_freq_mHz
                0x00802013        0x4 src/main.o
 .data.g_twi2_packet
                0x00802017        0xb src/main.o
                0x00802017                g_twi2_packet
 .data.g_twi2_options
                0x00802022        0x9 src/main.o
                0x00802022                g_twi2_options
 .data.g_twi1_packet
                0x0080202b        0xb src/main.o
                0x0080202b                g_twi1_packet
 .data.g_twi1_options
                0x00802036        0x9 src/main.o
                0x00802036                g_twi1_options
 .data.g_bias_pm
                0x0080203f        0x1 src/main.o
                0x0080203f                g_bias_pm
 .data.g_adc_enabled
                0x00802040        0x1 src/main.o
                0x00802040                g_adc_enabled
 .data.sleepmgr_configs
                0x00802041        0x6 src/ASF/common/services/sleepmgr/xmega/sleepmgr.o
                0x00802041                sleepmgr_configs
 .data.udi_api_cdc_data
                0x00802047        0xa src/ASF/common/services/usb/class/cdc/device/udi_cdc.o
                0x00802047                udi_api_cdc_data
 .data.udi_api_cdc_comm
                0x00802051        0xa src/ASF/common/services/usb/class/cdc/device/udi_cdc.o
                0x00802051                udi_api_cdc_comm
 .data.udc_config
                0x0080205b        0x6 src/ASF/common/services/usb/class/cdc/device/udi_cdc_desc.o
                0x0080205b                udc_config
 .data.udc_config_fs
                0x00802061        0x4 src/ASF/common/services/usb/class/cdc/device/udi_cdc_desc.o
                0x00802061                udc_config_fs
 .data.udi_apis
                0x00802065        0x4 src/ASF/common/services/usb/class/cdc/device/udi_cdc_desc.o
                0x00802065                udi_apis
 *fill*         0x00802069        0x1 
 .data.udc_desc_fs
                0x0080206a       0x44 src/ASF/common/services/usb/class/cdc/device/udi_cdc_desc.o
                0x0080206a                udc_desc_fs
 .data.udc_device_desc
                0x008020ae       0x12 src/ASF/common/services/usb/class/cdc/device/udi_cdc_desc.o
                0x008020ae                udc_device_desc
 .data.udc_string_desc
                0x008020c0       0x22 src/ASF/common/services/usb/udc/udc.o
 .data.udc_string_product_name
                0x008020e2        0xd src/ASF/common/services/usb/udc/udc.o
 .data.udc_string_manufacturer_name
                0x008020ef       0x11 src/ASF/common/services/usb/udc/udc.o
 .data.udc_string_desc_languageid
                0x00802100        0x4 src/ASF/common/services/usb/udc/udc.o
 *(.rodata)
 .rodata        0x00802104        0xc src/interpreter.o
 *(.rodata*)
 .rodata.str1.1
                0x00802110        0x4 src/serial.o
 .rodata.month  0x00802114       0x18 src/ASF/common/services/calendar/calendar.o
                0x00802114                month
 .rodata.CSWTCH.45
                0x0080212c        0xe src/ASF/xmega/drivers/usb/usb_device.o
 .rodata.str1.1
                0x0080213a        0x2 src/ASF/common/services/usb/udc/udc.o
 *(.gnu.linkonce.d*)
                0x0080213c                . = ALIGN (0x2)
                0x0080213c                _edata = .
                0x0080213c                PROVIDE (__data_end, .)

.bss            0x0080213c      0xea1
                0x0080213c                PROVIDE (__bss_start, .)
 *(.bss)
 *(.bss*)
 .bss.usb_last.8010
                0x0080213c        0x4 src/usb.o
 .bss.s_again.7965
                0x00802140        0x1 src/interpreter.o
 .bss.s_rx_cmdLine_idx
                0x00802141        0x1 src/interpreter.o
 .bss.s_rx_cmdLine_buf
                0x00802142      0x100 src/interpreter.o
 .bss.s_lcd_entry_state.8537
                0x00802242        0x1 src/twi.o
 .bss.s_twi1_baro_p_100.8530
                0x00802243        0x4 src/twi.o
 .bss.s_twi1_baro_temp_100.8529
                0x00802247        0x4 src/twi.o
 .bss.s_rads_z.8503
                0x0080224b        0x4 src/twi.o
 .bss.s_rads_y.8502
                0x0080224f        0x4 src/twi.o
 .bss.s_rads_x.8501
                0x00802253        0x4 src/twi.o
 .bss.s_twi1_gyro_1_gyro_z_mdps.8506
                0x00802257        0x4 src/twi.o
 .bss.s_twi1_gyro_1_gyro_y_mdps.8505
                0x0080225b        0x4 src/twi.o
 .bss.s_twi1_gyro_1_gyro_x_mdps.8504
                0x0080225f        0x4 src/twi.o
 .bss.s_p3x.8479
                0x00802263        0x1 src/twi.o
 .bss.s_p3y.8480
                0x00802264        0x1 src/twi.o
 .bss.s_p2x.8477
                0x00802265        0x1 src/twi.o
 .bss.s_p2y.8478
                0x00802266        0x1 src/twi.o
 .bss.s_p1x.8475
                0x00802267        0x1 src/twi.o
 .bss.s_p1y.8476
                0x00802268        0x1 src/twi.o
 .bss.s_twi1_gyro_1_accel_z_mg.8474
                0x00802269        0x2 src/twi.o
 .bss.s_twi1_gyro_1_accel_y_mg.8473
                0x0080226b        0x2 src/twi.o
 .bss.s_twi1_gyro_1_accel_x_mg.8472
                0x0080226d        0x2 src/twi.o
 .bss.s_p3x.8451
                0x0080226f        0x1 src/twi.o
 .bss.s_p3y.8452
                0x00802270        0x1 src/twi.o
 .bss.s_p2x.8449
                0x00802271        0x1 src/twi.o
 .bss.s_p2y.8450
                0x00802272        0x1 src/twi.o
 .bss.s_p1x.8447
                0x00802273        0x1 src/twi.o
 .bss.s_p1y.8448
                0x00802274        0x1 src/twi.o
 .bss.s_length.8446
                0x00802275        0x4 src/twi.o
 .bss.s_twi1_gyro_2_mag_z_nT.8445
                0x00802279        0x4 src/twi.o
 .bss.s_twi1_gyro_2_mag_y_nT.8444
                0x0080227d        0x4 src/twi.o
 .bss.s_twi1_gyro_2_mag_x_nT.8443
                0x00802281        0x4 src/twi.o
 .bss.s_twi1_hygro_RH_100.8432
                0x00802285        0x2 src/twi.o
 .bss.s_twi1_hygro_T_100.8431
                0x00802287        0x2 src/twi.o
 .bss.s_gns_speed.8416
                0x00802289        0x4 src/twi.o
 .bss.s_gns_msl.8415
                0x0080228d        0x4 src/twi.o
 .bss.s_gns_lon.8414
                0x00802291        0x4 src/twi.o
 .bss.s_gns_lat.8413
                0x00802295        0x4 src/twi.o
 .bss.s_adc_vctcxo_volt_1000.8406
                0x00802299        0x2 src/twi.o
 .bss.s_adc_vbat_volt_1000.8405
                0x0080229b        0x2 src/twi.o
 .bss.s_adc_5v0_volt_1000.8395
                0x0080229d        0x2 src/twi.o
 .bss.s_adc_temp_deg_100.8394
                0x0080229f        0x2 src/twi.o
 .bss.s_year.8393
                0x008022a1        0x2 src/twi.o
 .bss.s_month.8392
                0x008022a3        0x1 src/twi.o
 .bss.s_date.8391
                0x008022a4        0x1 src/twi.o
 .bss.s_hour.8390
                0x008022a5        0x1 src/twi.o
 .bss.s_minute.8389
                0x008022a6        0x1 src/twi.o
 .bss.s_epoch_secs.8388
                0x008022a7        0x4 src/twi.o
 .bss.s_twi1_baro_d2.8205
                0x008022ab        0x4 src/twi.o
 .bss.s_twi1_baro_d1.8204
                0x008022af        0x4 src/twi.o
 .bss.adcb_enable_count
                0x008022b3        0x1 src/ASF/xmega/drivers/adc/adc.o
 .bss.adca_enable_count
                0x008022b4        0x1 src/ASF/xmega/drivers/adc/adc.o
 .bss.dacb_enable_count
                0x008022b5        0x1 src/ASF/xmega/drivers/dac/dac.o
 .bss.tc_tcf0_ccd_callback
                0x008022b6        0x2 src/ASF/xmega/drivers/tc/tc.o
 .bss.tc_tcf0_ccc_callback
                0x008022b8        0x2 src/ASF/xmega/drivers/tc/tc.o
 .bss.tc_tcf0_ccb_callback
                0x008022ba        0x2 src/ASF/xmega/drivers/tc/tc.o
 .bss.tc_tcf0_cca_callback
                0x008022bc        0x2 src/ASF/xmega/drivers/tc/tc.o
 .bss.tc_tcf0_err_callback
                0x008022be        0x2 src/ASF/xmega/drivers/tc/tc.o
 .bss.tc_tcf0_ovf_callback
                0x008022c0        0x2 src/ASF/xmega/drivers/tc/tc.o
 .bss.tc_tce1_ccb_callback
                0x008022c2        0x2 src/ASF/xmega/drivers/tc/tc.o
 .bss.tc_tce1_cca_callback
                0x008022c4        0x2 src/ASF/xmega/drivers/tc/tc.o
 .bss.tc_tce1_err_callback
                0x008022c6        0x2 src/ASF/xmega/drivers/tc/tc.o
 .bss.tc_tce1_ovf_callback
                0x008022c8        0x2 src/ASF/xmega/drivers/tc/tc.o
 .bss.tc_tce0_ccd_callback
                0x008022ca        0x2 src/ASF/xmega/drivers/tc/tc.o
 .bss.tc_tce0_ccc_callback
                0x008022cc        0x2 src/ASF/xmega/drivers/tc/tc.o
 .bss.tc_tce0_ccb_callback
                0x008022ce        0x2 src/ASF/xmega/drivers/tc/tc.o
 .bss.tc_tce0_cca_callback
                0x008022d0        0x2 src/ASF/xmega/drivers/tc/tc.o
 .bss.tc_tce0_err_callback
                0x008022d2        0x2 src/ASF/xmega/drivers/tc/tc.o
 .bss.tc_tce0_ovf_callback
                0x008022d4        0x2 src/ASF/xmega/drivers/tc/tc.o
 .bss.tc_tcd1_ccb_callback
                0x008022d6        0x2 src/ASF/xmega/drivers/tc/tc.o
 .bss.tc_tcd1_cca_callback
                0x008022d8        0x2 src/ASF/xmega/drivers/tc/tc.o
 .bss.tc_tcd1_err_callback
                0x008022da        0x2 src/ASF/xmega/drivers/tc/tc.o
 .bss.tc_tcd1_ovf_callback
                0x008022dc        0x2 src/ASF/xmega/drivers/tc/tc.o
 .bss.tc_tcd0_ccd_callback
                0x008022de        0x2 src/ASF/xmega/drivers/tc/tc.o
 .bss.tc_tcd0_ccc_callback
                0x008022e0        0x2 src/ASF/xmega/drivers/tc/tc.o
 .bss.tc_tcd0_ccb_callback
                0x008022e2        0x2 src/ASF/xmega/drivers/tc/tc.o
 .bss.tc_tcd0_cca_callback
                0x008022e4        0x2 src/ASF/xmega/drivers/tc/tc.o
 .bss.tc_tcd0_err_callback
                0x008022e6        0x2 src/ASF/xmega/drivers/tc/tc.o
 .bss.tc_tcd0_ovf_callback
                0x008022e8        0x2 src/ASF/xmega/drivers/tc/tc.o
 .bss.tc_tcc1_ccb_callback
                0x008022ea        0x2 src/ASF/xmega/drivers/tc/tc.o
 .bss.tc_tcc1_cca_callback
                0x008022ec        0x2 src/ASF/xmega/drivers/tc/tc.o
 .bss.tc_tcc1_err_callback
                0x008022ee        0x2 src/ASF/xmega/drivers/tc/tc.o
 .bss.tc_tcc1_ovf_callback
                0x008022f0        0x2 src/ASF/xmega/drivers/tc/tc.o
 .bss.tc_tcc0_ccd_callback
                0x008022f2        0x2 src/ASF/xmega/drivers/tc/tc.o
 .bss.tc_tcc0_ccc_callback
                0x008022f4        0x2 src/ASF/xmega/drivers/tc/tc.o
 .bss.tc_tcc0_ccb_callback
                0x008022f6        0x2 src/ASF/xmega/drivers/tc/tc.o
 .bss.tc_tcc0_cca_callback
                0x008022f8        0x2 src/ASF/xmega/drivers/tc/tc.o
 .bss.tc_tcc0_err_callback
                0x008022fa        0x2 src/ASF/xmega/drivers/tc/tc.o
 .bss.tc_tcc0_ovf_callback
                0x008022fc        0x2 src/ASF/xmega/drivers/tc/tc.o
 .bss.transfer  0x008022fe        0xb src/ASF/xmega/drivers/twi/twim.o
 .bss.b_shortpacket.5472
                0x00802309        0x1 src/ASF/xmega/drivers/usb/usb_device.o
 .bss.udd_ep_out_cache_buffer
                0x0080230a       0x80 src/ASF/xmega/drivers/usb/usb_device.o
 .bss.udd_ep_job
                0x0080238a       0x24 src/ASF/xmega/drivers/usb/usb_device.o
 .bss.udd_ctrl_buffer
                0x008023ae       0x40 src/ASF/xmega/drivers/usb/usb_device.o
 .bss.udd_ctrl_payload_nb_trans
                0x008023ee        0x2 src/ASF/xmega/drivers/usb/usb_device.o
 .bss.udd_ctrl_prev_payload_nb_trans
                0x008023f0        0x2 src/ASF/xmega/drivers/usb/usb_device.o
 .bss.udd_ep_control_state
                0x008023f2        0x1 src/ASF/xmega/drivers/usb/usb_device.o
 *fill*         0x008023f3        0x1 
 .bss.udd_sram  0x008023f4       0x40 src/ASF/xmega/drivers/usb/usb_device.o
 .bss.udd_b_idle
                0x00802434        0x1 src/ASF/xmega/drivers/usb/usb_device.o
 .bss.s_xo_mode_pwm_val_frac.8381
                0x00802435        0x2 src/main.o
 .bss.s_diff_ary.8382
                0x00802437       0x20 src/main.o
 .bss.s_diff_ary_idx.8383
                0x00802457        0x1 src/main.o
 .bss.adc_last.8361
                0x00802458        0x4 src/main.o
 .bss.last_500ms.8279
                0x0080245c        0x4 src/main.o
 .bss.last_100ms.8278
                0x00802460        0x4 src/main.o
 .bss.s_dds1_freq_mHz.8351
                0x00802464        0x4 src/main.o
 .bss.s_dds0_freq_mHz.8350
                0x00802468        0x4 src/main.o
 .bss.dac_io_dac0_buf
                0x0080246c       0x40 src/main.o
 .bss.dds1_inc  0x008024ac        0x4 src/main.o
 .bss.dds0_reg  0x008024b0        0x4 src/main.o
 .bss.dds0_inc  0x008024b4        0x4 src/main.o
 .bss.dmach_dma1_conf
                0x008024b8        0xb src/main.o
 .bss.dmach_dma0_conf
                0x008024c3        0xb src/main.o
 .bss.dac_conf  0x008024ce        0x4 src/main.o
 .bss.g_twi2_m_data
                0x008024d2        0x8 src/main.o
                0x008024d2                g_twi2_m_data
 .bss.g_twi1_m_data
                0x008024da        0x8 src/main.o
                0x008024da                g_twi1_m_data
 .bss.g_prepare_buf
                0x008024e2       0x80 src/main.o
                0x008024e2                g_prepare_buf
 .bss.g_sched_sort
                0x00802562       0x20 src/main.o
                0x00802562                g_sched_sort
 .bss.g_sched_data
                0x00802582       0xe0 src/main.o
                0x00802582                g_sched_data
 .bss.g_sched_pop_again
                0x00802662        0x1 src/main.o
                0x00802662                g_sched_pop_again
 .bss.g_sched_yield
                0x00802663        0x1 src/main.o
                0x00802663                g_sched_yield
 .bss.g_twi1_lock
                0x00802664        0x1 src/main.o
                0x00802664                g_twi1_lock
 .bss.g_interpreter_lock
                0x00802665        0x1 src/main.o
                0x00802665                g_interpreter_lock
 .bss.g_sched_lock
                0x00802666        0x1 src/main.o
                0x00802666                g_sched_lock
 .bss.g_pwm_ctr_pll_cfg
                0x00802667        0x7 src/main.o
                0x00802667                g_pwm_ctr_pll_cfg
 .bss.g_pwm_vctcxo_cfg
                0x0080266e        0x7 src/main.o
                0x0080266e                g_pwm_vctcxo_cfg
 .bss.g_adc_temp_deg_100
                0x00802675        0x2 src/main.o
                0x00802675                g_adc_temp_deg_100
 .bss.g_adc_silence_volt_1000
                0x00802677        0x2 src/main.o
                0x00802677                g_adc_silence_volt_1000
 .bss.g_adc_io_adc5_volt_1000
                0x00802679        0x2 src/main.o
                0x00802679                g_adc_io_adc5_volt_1000
 .bss.g_adc_io_adc4_volt_1000
                0x0080267b        0x2 src/main.o
                0x0080267b                g_adc_io_adc4_volt_1000
 .bss.g_adc_vbat_volt_1000
                0x0080267d        0x2 src/main.o
                0x0080267d                g_adc_vbat_volt_1000
 .bss.g_adc_5v0_volt_1000
                0x0080267f        0x2 src/main.o
                0x0080267f                g_adc_5v0_volt_1000
 .bss.g_adc_vctcxo_volt_1000
                0x00802681        0x2 src/main.o
                0x00802681                g_adc_vctcxo_volt_1000
 .bss.g_adc_temp_cnt
                0x00802683        0x2 src/main.o
                0x00802683                g_adc_temp_cnt
 .bss.g_adc_temp_sum
                0x00802685        0x4 src/main.o
                0x00802685                g_adc_temp_sum
 .bss.g_adc_temp_cur
                0x00802689        0x4 src/main.o
                0x00802689                g_adc_temp_cur
 .bss.g_adc_silence_cnt
                0x0080268d        0x2 src/main.o
                0x0080268d                g_adc_silence_cnt
 .bss.g_adc_silence_sum
                0x0080268f        0x4 src/main.o
                0x0080268f                g_adc_silence_sum
 .bss.g_adc_silence_cur
                0x00802693        0x4 src/main.o
                0x00802693                g_adc_silence_cur
 .bss.g_adc_io_adc5_cnt
                0x00802697        0x2 src/main.o
                0x00802697                g_adc_io_adc5_cnt
 .bss.g_adc_io_adc5_sum
                0x00802699        0x4 src/main.o
                0x00802699                g_adc_io_adc5_sum
 .bss.g_adc_io_adc5_cur
                0x0080269d        0x4 src/main.o
                0x0080269d                g_adc_io_adc5_cur
 .bss.g_adc_io_adc4_cnt
                0x008026a1        0x2 src/main.o
                0x008026a1                g_adc_io_adc4_cnt
 .bss.g_adc_io_adc4_sum
                0x008026a3        0x4 src/main.o
                0x008026a3                g_adc_io_adc4_sum
 .bss.g_adc_io_adc4_cur
                0x008026a7        0x4 src/main.o
                0x008026a7                g_adc_io_adc4_cur
 .bss.g_adc_vbat_cnt
                0x008026ab        0x2 src/main.o
                0x008026ab                g_adc_vbat_cnt
 .bss.g_adc_vbat_sum
                0x008026ad        0x4 src/main.o
                0x008026ad                g_adc_vbat_sum
 .bss.g_adc_vbat_cur
                0x008026b1        0x4 src/main.o
                0x008026b1                g_adc_vbat_cur
 .bss.g_adc_5v0_cnt
                0x008026b5        0x2 src/main.o
                0x008026b5                g_adc_5v0_cnt
 .bss.g_adc_5v0_sum
                0x008026b7        0x4 src/main.o
                0x008026b7                g_adc_5v0_sum
 .bss.g_adc_5v0_cur
                0x008026bb        0x4 src/main.o
                0x008026bb                g_adc_5v0_cur
 .bss.g_adc_vctcxo_cnt
                0x008026bf        0x2 src/main.o
                0x008026bf                g_adc_vctcxo_cnt
 .bss.g_adc_vctcxo_sum
                0x008026c1        0x4 src/main.o
                0x008026c1                g_adc_vctcxo_sum
 .bss.g_adc_vctcxo_cur
                0x008026c5        0x4 src/main.o
                0x008026c5                g_adc_vctcxo_cur
 .bss.g_adcch_temp_conf
                0x008026c9        0x4 src/main.o
                0x008026c9                g_adcch_temp_conf
 .bss.g_adc_b_conf
                0x008026cd        0x7 src/main.o
                0x008026cd                g_adc_b_conf
 .bss.g_adcch_silence_conf
                0x008026d4        0x4 src/main.o
                0x008026d4                g_adcch_silence_conf
 .bss.g_adcch_io_adc5_conf
                0x008026d8        0x4 src/main.o
                0x008026d8                g_adcch_io_adc5_conf
 .bss.g_adcch_io_adc4_conf
                0x008026dc        0x4 src/main.o
                0x008026dc                g_adcch_io_adc4_conf
 .bss.g_adcch_vctcxo_5v0_vbat_conf
                0x008026e0        0x4 src/main.o
                0x008026e0                g_adcch_vctcxo_5v0_vbat_conf
 .bss.g_adc_a_conf
                0x008026e4        0x7 src/main.o
                0x008026e4                g_adc_a_conf
 .bss.g_xo_mode_pwm
                0x008026eb        0x4 src/main.o
                0x008026eb                g_xo_mode_pwm
 .bss.g_twi2_lcd_repaint
                0x008026ef        0x1 src/main.o
                0x008026ef                g_twi2_lcd_repaint
 .bss.g_twi2_lcd_version
                0x008026f0        0x1 src/main.o
                0x008026f0                g_twi2_lcd_version
 .bss.g_twi1_hygro_RH_100
                0x008026f1        0x2 src/main.o
                0x008026f1                g_twi1_hygro_RH_100
 .bss.g_twi1_hygro_T_100
                0x008026f3        0x2 src/main.o
                0x008026f3                g_twi1_hygro_T_100
 .bss.g_twi1_hygro_S_RH
                0x008026f5        0x2 src/main.o
                0x008026f5                g_twi1_hygro_S_RH
 .bss.g_twi1_hygro_S_T
                0x008026f7        0x2 src/main.o
                0x008026f7                g_twi1_hygro_S_T
 .bss.g_twi1_hygro_status
                0x008026f9        0x1 src/main.o
                0x008026f9                g_twi1_hygro_status
 .bss.g_twi1_hygro_valid
                0x008026fa        0x1 src/main.o
                0x008026fa                g_twi1_hygro_valid
 .bss.g_twi1_baro_p_100
                0x008026fb        0x4 src/main.o
                0x008026fb                g_twi1_baro_p_100
 .bss.g_twi1_baro_temp_100
                0x008026ff        0x4 src/main.o
                0x008026ff                g_twi1_baro_temp_100
 .bss.g_twi1_baro_d2
                0x00802703        0x4 src/main.o
                0x00802703                g_twi1_baro_d2
 .bss.g_twi1_baro_d1
                0x00802707        0x4 src/main.o
                0x00802707                g_twi1_baro_d1
 .bss.g_twi1_baro_c
                0x0080270b       0x10 src/main.o
                0x0080270b                g_twi1_baro_c
 .bss.g_twi1_baro_version
                0x0080271b        0x2 src/main.o
                0x0080271b                g_twi1_baro_version
 .bss.g_twi1_baro_valid
                0x0080271d        0x1 src/main.o
                0x0080271d                g_twi1_baro_valid
 .bss.g_twi1_gyro_2_mag_z_nT
                0x0080271e        0x4 src/main.o
                0x0080271e                g_twi1_gyro_2_mag_z_nT
 .bss.g_twi1_gyro_2_mag_y_nT
                0x00802722        0x4 src/main.o
                0x00802722                g_twi1_gyro_2_mag_y_nT
 .bss.g_twi1_gyro_2_mag_x_nT
                0x00802726        0x4 src/main.o
                0x00802726                g_twi1_gyro_2_mag_x_nT
 .bss.g_twi1_gyro_2_mag_factz
                0x0080272a        0x2 src/main.o
                0x0080272a                g_twi1_gyro_2_mag_factz
 .bss.g_twi1_gyro_2_mag_facty
                0x0080272c        0x2 src/main.o
                0x0080272c                g_twi1_gyro_2_mag_facty
 .bss.g_twi1_gyro_2_mag_factx
                0x0080272e        0x2 src/main.o
                0x0080272e                g_twi1_gyro_2_mag_factx
 .bss.g_twi1_gyro_2_mag_z
                0x00802730        0x2 src/main.o
                0x00802730                g_twi1_gyro_2_mag_z
 .bss.g_twi1_gyro_2_mag_y
                0x00802732        0x2 src/main.o
                0x00802732                g_twi1_gyro_2_mag_y
 .bss.g_twi1_gyro_2_mag_x
                0x00802734        0x2 src/main.o
                0x00802734                g_twi1_gyro_2_mag_x
 .bss.g_twi1_gyro_2_ofsz
                0x00802736        0x2 src/main.o
                0x00802736                g_twi1_gyro_2_ofsz
 .bss.g_twi1_gyro_2_ofsy
                0x00802738        0x2 src/main.o
                0x00802738                g_twi1_gyro_2_ofsy
 .bss.g_twi1_gyro_2_ofsx
                0x0080273a        0x2 src/main.o
                0x0080273a                g_twi1_gyro_2_ofsx
 .bss.g_twi1_gyro_2_asaz
                0x0080273c        0x1 src/main.o
                0x0080273c                g_twi1_gyro_2_asaz
 .bss.g_twi1_gyro_2_asay
                0x0080273d        0x1 src/main.o
                0x0080273d                g_twi1_gyro_2_asay
 .bss.g_twi1_gyro_2_asax
                0x0080273e        0x1 src/main.o
                0x0080273e                g_twi1_gyro_2_asax
 .bss.g_twi1_gyro_2_version
                0x0080273f        0x1 src/main.o
                0x0080273f                g_twi1_gyro_2_version
 .bss.g_twi1_gyro_accel_offset_set__flag
                0x00802740        0x1 src/main.o
                0x00802740                g_twi1_gyro_accel_offset_set__flag
 .bss.g_twi1_gyro_gyro_offset_set__flag
                0x00802741        0x1 src/main.o
                0x00802741                g_twi1_gyro_gyro_offset_set__flag
 .bss.g_twi1_gyro_1_gyro_z_mdps
                0x00802742        0x4 src/main.o
                0x00802742                g_twi1_gyro_1_gyro_z_mdps
 .bss.g_twi1_gyro_1_gyro_y_mdps
                0x00802746        0x4 src/main.o
                0x00802746                g_twi1_gyro_1_gyro_y_mdps
 .bss.g_twi1_gyro_1_gyro_x_mdps
                0x0080274a        0x4 src/main.o
                0x0080274a                g_twi1_gyro_1_gyro_x_mdps
 .bss.g_twi1_gyro_1_gyro_ofsz
                0x0080274e        0x2 src/main.o
                0x0080274e                g_twi1_gyro_1_gyro_ofsz
 .bss.g_twi1_gyro_1_gyro_ofsy
                0x00802750        0x2 src/main.o
                0x00802750                g_twi1_gyro_1_gyro_ofsy
 .bss.g_twi1_gyro_1_gyro_ofsx
                0x00802752        0x2 src/main.o
                0x00802752                g_twi1_gyro_1_gyro_ofsx
 .bss.g_twi1_gyro_1_gyro_z
                0x00802754        0x2 src/main.o
                0x00802754                g_twi1_gyro_1_gyro_z
 .bss.g_twi1_gyro_1_gyro_y
                0x00802756        0x2 src/main.o
                0x00802756                g_twi1_gyro_1_gyro_y
 .bss.g_twi1_gyro_1_gyro_x
                0x00802758        0x2 src/main.o
                0x00802758                g_twi1_gyro_1_gyro_x
 .bss.g_twi1_gyro_1_accel_z_mg
                0x0080275a        0x2 src/main.o
                0x0080275a                g_twi1_gyro_1_accel_z_mg
 .bss.g_twi1_gyro_1_accel_y_mg
                0x0080275c        0x2 src/main.o
                0x0080275c                g_twi1_gyro_1_accel_y_mg
 .bss.g_twi1_gyro_1_accel_x_mg
                0x0080275e        0x2 src/main.o
                0x0080275e                g_twi1_gyro_1_accel_x_mg
 .bss.g_twi1_gyro_1_accel_factz
                0x00802760        0x2 src/main.o
                0x00802760                g_twi1_gyro_1_accel_factz
 .bss.g_twi1_gyro_1_accel_facty
                0x00802762        0x2 src/main.o
                0x00802762                g_twi1_gyro_1_accel_facty
 .bss.g_twi1_gyro_1_accel_factx
                0x00802764        0x2 src/main.o
                0x00802764                g_twi1_gyro_1_accel_factx
 .bss.g_twi1_gyro_1_accel_ofsz
                0x00802766        0x2 src/main.o
                0x00802766                g_twi1_gyro_1_accel_ofsz
 .bss.g_twi1_gyro_1_accel_ofsy
                0x00802768        0x2 src/main.o
                0x00802768                g_twi1_gyro_1_accel_ofsy
 .bss.g_twi1_gyro_1_accel_ofsx
                0x0080276a        0x2 src/main.o
                0x0080276a                g_twi1_gyro_1_accel_ofsx
 .bss.g_twi1_gyro_1_accel_z
                0x0080276c        0x2 src/main.o
                0x0080276c                g_twi1_gyro_1_accel_z
 .bss.g_twi1_gyro_1_accel_y
                0x0080276e        0x2 src/main.o
                0x0080276e                g_twi1_gyro_1_accel_y
 .bss.g_twi1_gyro_1_accel_x
                0x00802770        0x2 src/main.o
                0x00802770                g_twi1_gyro_1_accel_x
 .bss.g_twi1_gyro_1_temp_deg_100
                0x00802772        0x2 src/main.o
                0x00802772                g_twi1_gyro_1_temp_deg_100
 .bss.g_twi1_gyro_1_temp_sens
                0x00802774        0x2 src/main.o
                0x00802774                g_twi1_gyro_1_temp_sens
 .bss.g_twi1_gyro_1_temp_RTofs
                0x00802776        0x2 src/main.o
                0x00802776                g_twi1_gyro_1_temp_RTofs
 .bss.g_twi1_gyro_1_temp
                0x00802778        0x2 src/main.o
                0x00802778                g_twi1_gyro_1_temp
 .bss.g_twi1_gyro_1_version
                0x0080277a        0x1 src/main.o
                0x0080277a                g_twi1_gyro_1_version
 .bss.g_twi1_gyro_valid
                0x0080277b        0x1 src/main.o
                0x0080277b                g_twi1_gyro_valid
 .bss.g_usart1_rx_buf
                0x0080277c      0x200 src/main.o
                0x0080277c                g_usart1_rx_buf
 .bss.g_usart1_rx_idx
                0x0080297c        0x2 src/main.o
                0x0080297c                g_usart1_rx_idx
 .bss.g_usart1_rx_ready
                0x0080297e        0x1 src/main.o
                0x0080297e                g_usart1_rx_ready
 .bss.g_usart1_options
                0x0080297f        0x7 src/main.o
                0x0080297f                g_usart1_options
 .bss.g_workmode
                0x00802986        0x1 src/main.o
                0x00802986                g_workmode
 .bss.g_usb_cdc_access_blocked
                0x00802987        0x1 src/main.o
                0x00802987                g_usb_cdc_access_blocked
 .bss.g_usb_cdc_transfers_authorized
                0x00802988        0x1 src/main.o
                0x00802988                g_usb_cdc_transfers_authorized
 .bss.g_usb_cdc_rx_received
                0x00802989        0x1 src/main.o
                0x00802989                g_usb_cdc_rx_received
 .bss.g_usb_cdc_printStatusLines_1pps
                0x0080298a        0x1 src/main.o
                0x0080298a                g_usb_cdc_printStatusLines_1pps
 .bss.g_usb_cdc_printStatusLines_sim808
                0x0080298b        0x1 src/main.o
                0x0080298b                g_usb_cdc_printStatusLines_sim808
 .bss.g_usb_cdc_printStatusLines_atxmega
                0x0080298c        0x1 src/main.o
                0x0080298c                g_usb_cdc_printStatusLines_atxmega
 .bss.g_usb_cdc_stdout_enabled
                0x0080298d        0x1 src/main.o
                0x0080298d                g_usb_cdc_stdout_enabled
 .bss.g_gns_cPn0_dBHz
                0x0080298e        0x1 src/main.o
                0x0080298e                g_gns_cPn0_dBHz
 .bss.g_gns_glonass_sats_inView
                0x0080298f        0x1 src/main.o
                0x0080298f                g_gns_glonass_sats_inView
 .bss.g_gns_gnss_sats_used
                0x00802990        0x1 src/main.o
                0x00802990                g_gns_gnss_sats_used
 .bss.g_gns_gps_sats_inView
                0x00802991        0x1 src/main.o
                0x00802991                g_gns_gps_sats_inView
 .bss.g_gns_dop_v
                0x00802992        0x4 src/main.o
                0x00802992                g_gns_dop_v
 .bss.g_gns_dop_p
                0x00802996        0x4 src/main.o
                0x00802996                g_gns_dop_p
 .bss.g_gns_dop_h
                0x0080299a        0x4 src/main.o
                0x0080299a                g_gns_dop_h
 .bss.g_gns_fix_mode
                0x0080299e        0x1 src/main.o
                0x0080299e                g_gns_fix_mode
 .bss.g_gns_course_deg
                0x0080299f        0x4 src/main.o
                0x0080299f                g_gns_course_deg
 .bss.g_gns_speed_kmPh
                0x008029a3        0x4 src/main.o
                0x008029a3                g_gns_speed_kmPh
 .bss.g_gns_msl_alt_m
                0x008029a7        0x4 src/main.o
                0x008029a7                g_gns_msl_alt_m
 .bss.g_gns_lon
                0x008029ab        0x4 src/main.o
                0x008029ab                g_gns_lon
 .bss.g_gns_lat
                0x008029af        0x4 src/main.o
                0x008029af                g_gns_lat
 .bss.g_gns_fix_status
                0x008029b3        0x1 src/main.o
                0x008029b3                g_gns_fix_status
 .bss.g_gns_run_status
                0x008029b4        0x1 src/main.o
                0x008029b4                g_gns_run_status
 .bss.g_1pps_twi_new
                0x008029b5        0x1 src/main.o
                0x008029b5                g_1pps_twi_new
 .bss.g_1pps_led
                0x008029b6        0x1 src/main.o
                0x008029b6                g_1pps_led
 .bss.g_1pps_phased_cntr
                0x008029b7        0x1 src/main.o
                0x008029b7                g_1pps_phased_cntr
 .bss.g_1pps_printusb_avail
                0x008029b8        0x1 src/main.o
                0x008029b8                g_1pps_printusb_avail
 .bss.g_1pps_printtwi_avail
                0x008029b9        0x1 src/main.o
                0x008029b9                g_1pps_printtwi_avail
 .bss.g_1pps_deviation
                0x008029ba        0x2 src/main.o
                0x008029ba                g_1pps_deviation
 .bss.g_1pps_processed_outOfSync
                0x008029bc        0x1 src/main.o
                0x008029bc                g_1pps_processed_outOfSync
 .bss.g_1pps_proceeded_avail
                0x008029bd        0x1 src/main.o
                0x008029bd                g_1pps_proceeded_avail
 .bss.g_1pps_processed_hi
                0x008029be        0x8 src/main.o
                0x008029be                g_1pps_processed_hi
 .bss.g_1pps_processed_lo
                0x008029c6        0x2 src/main.o
                0x008029c6                g_1pps_processed_lo
 .bss.g_1pps_last_adjust
                0x008029c8        0x1 src/main.o
                0x008029c8                g_1pps_last_adjust
 .bss.g_1pps_last_new
                0x008029c9        0x1 src/main.o
                0x008029c9                g_1pps_last_new
 .bss.g_1pps_last_inSpan
                0x008029ca        0x1 src/main.o
                0x008029ca                g_1pps_last_inSpan
 .bss.g_1pps_last_diff
                0x008029cb        0x2 src/main.o
                0x008029cb                g_1pps_last_diff
 .bss.g_1pps_last_hi
                0x008029cd        0x8 src/main.o
                0x008029cd                g_1pps_last_hi
 .bss.g_1pps_last_lo
                0x008029d5        0x2 src/main.o
                0x008029d5                g_1pps_last_lo
 .bss.g_boot_time_ts
                0x008029d7        0x4 src/main.o
                0x008029d7                g_boot_time_ts
 .bss.g_milliseconds_cnt64
                0x008029db        0x8 src/main.o
                0x008029db                g_milliseconds_cnt64
 .bss.g_keyBeep_enable
                0x008029e3        0x1 src/main.o
                0x008029e3                g_keyBeep_enable
 .bss.g_errorBeep_enable
                0x008029e4        0x1 src/main.o
                0x008029e4                g_errorBeep_enable
 .bss.g_pitch_tone_mode
                0x008029e5        0x1 src/main.o
                0x008029e5                g_pitch_tone_mode
 .bss.g_backlight_mode_pwm
                0x008029e6        0x2 src/main.o
                0x008029e6                g_backlight_mode_pwm
 .bss.g_dac_enabled
                0x008029e8        0x1 src/main.o
                0x008029e8                g_dac_enabled
 .bss.sof_zlp_counter.5059
                0x008029e9        0x2 src/ASF/common/services/usb/class/cdc/device/udi_cdc.o
 .bss.udi_cdc_tx_both_buf_to_send
                0x008029eb        0x1 src/ASF/common/services/usb/class/cdc/device/udi_cdc.o
 .bss.udi_cdc_tx_trans_ongoing
                0x008029ec        0x1 src/ASF/common/services/usb/class/cdc/device/udi_cdc.o
 .bss.udi_cdc_tx_sof_num
                0x008029ed        0x2 src/ASF/common/services/usb/class/cdc/device/udi_cdc.o
 .bss.udi_cdc_tx_buf_sel
                0x008029ef        0x1 src/ASF/common/services/usb/class/cdc/device/udi_cdc.o
 .bss.udi_cdc_tx_buf_nb
                0x008029f0        0x4 src/ASF/common/services/usb/class/cdc/device/udi_cdc.o
 .bss.udi_cdc_tx_buf
                0x008029f4      0x280 src/ASF/common/services/usb/class/cdc/device/udi_cdc.o
 .bss.udi_cdc_rx_trans_ongoing
                0x00802c74        0x1 src/ASF/common/services/usb/class/cdc/device/udi_cdc.o
 .bss.udi_cdc_rx_pos
                0x00802c75        0x2 src/ASF/common/services/usb/class/cdc/device/udi_cdc.o
 .bss.udi_cdc_rx_buf_sel
                0x00802c77        0x1 src/ASF/common/services/usb/class/cdc/device/udi_cdc.o
 .bss.udi_cdc_rx_buf_nb
                0x00802c78        0x4 src/ASF/common/services/usb/class/cdc/device/udi_cdc.o
 .bss.udi_cdc_rx_buf
                0x00802c7c      0x280 src/ASF/common/services/usb/class/cdc/device/udi_cdc.o
 .bss.udi_cdc_data_running
                0x00802efc        0x1 src/ASF/common/services/usb/class/cdc/device/udi_cdc.o
 .bss.udi_cdc_nb_data_enabled
                0x00802efd        0x1 src/ASF/common/services/usb/class/cdc/device/udi_cdc.o
 .bss.udi_cdc_nb_comm_enabled
                0x00802efe        0x1 src/ASF/common/services/usb/class/cdc/device/udi_cdc.o
 *fill*         0x00802eff        0x1 
 .bss.uid_cdc_state_msg
                0x00802f00        0xa src/ASF/common/services/usb/class/cdc/device/udi_cdc.o
 .bss.udi_cdc_state
                0x00802f0a        0x2 src/ASF/common/services/usb/class/cdc/device/udi_cdc.o
 .bss.udi_cdc_line_coding
                0x00802f0c        0x8 src/ASF/common/services/usb/class/cdc/device/udi_cdc.o
 .bss.udc_ep_status.4757
                0x00802f14        0x2 src/ASF/common/services/usb/udc/udc.o
 .bss.udc_ptr_iface
                0x00802f16        0x2 src/ASF/common/services/usb/udc/udc.o
 .bss.udc_ptr_conf
                0x00802f18        0x2 src/ASF/common/services/usb/udc/udc.o
 .bss.udc_num_configuration
                0x00802f1a        0x2 src/ASF/common/services/usb/udc/udc.o
 .bss.udc_iface_setting
                0x00802f1c        0x2 src/ASF/common/services/usb/udc/udc.o
 .bss.udc_device_status
                0x00802f1e        0x2 src/ASF/common/services/usb/udc/udc.o
 .bss.stdio_usb_interface_enable
                0x00802f20        0x1 src/ASF/common/utils/stdio/stdio_usb/stdio_usb.o
 *(COMMON)
 COMMON         0x00802f21        0x8 src/ASF/xmega/drivers/dma/dma.o
                0x00802f21                dma_data
 COMMON         0x00802f29        0x2 src/ASF/xmega/drivers/rtc32/rtc32.o
                0x00802f29                rtc_data
 COMMON         0x00802f2b        0x4 src/ASF/xmega/drivers/adc/adc.o
                0x00802f2b                adcb_callback
                0x00802f2d                adca_callback
 COMMON         0x00802f2f       0x10 src/ASF/xmega/drivers/usb/usb_device.o
                0x00802f2f                udd_g_ctrlreq
 COMMON         0x00802f3f       0x86 src/main.o
                0x00802f3f                g_fifo_sched_desc
                0x00802f45                g_fifo_sched_buffer
 COMMON         0x00802fc5        0x6 src/ASF/common/services/sleepmgr/xmega/sleepmgr.o
                0x00802fc5                sleepmgr_locks
 COMMON         0x00802fcb        0x2 src/ASF/common/utils/stdio/read.o
                0x00802fcb                ptr_get
 COMMON         0x00802fcd        0x4 src/ASF/common/utils/stdio/write.o
                0x00802fcd                ptr_put
                0x00802fcf                stdio_base
 COMMON         0x00802fd1        0x6 c:/program files (x86)/atmel/studio/7.0/toolchain/avr8/avr8-gnu-toolchain/bin/../lib/gcc/avr/5.4.0/../../../../avr/lib/avrxmega6\libc.a(iob.o)
                0x00802fd1                __iob
 COMMON         0x00802fd7        0x2 c:/program files (x86)/atmel/studio/7.0/toolchain/avr8/avr8-gnu-toolchain/bin/../lib/gcc/avr/5.4.0/../../../../avr/lib/avrxmega6\libc.a(errno.o)
                0x00802fd7                errno
 COMMON         0x00802fd9        0x4 c:/program files (x86)/atmel/studio/7.0/toolchain/avr8/avr8-gnu-toolchain/bin/../lib/gcc/avr/5.4.0/../../../../avr/lib/avrxmega6\libc.a(malloc.o)
                0x00802fd9                __brkval
                0x00802fdb                __flp
                0x00802fdd                PROVIDE (__bss_end, .)
                0x00012d40                __data_load_start = LOADADDR (.data)
                0x00012e7c                __data_load_end = (__data_load_start + SIZEOF (.data))

.noinit         0x00802fdd        0x0
                [!provide]                PROVIDE (__noinit_start, .)
 *(.noinit*)
                [!provide]                PROVIDE (__noinit_end, .)
                0x00802fdd                _end = .
                0x00802fdd                PROVIDE (__heap_start, .)

.eeprom         0x00810000        0x0
 *(.eeprom*)
                0x00810000                __eeprom_end = .

.fuse
 *(.fuse)
 *(.lfuse)
 *(.hfuse)
 *(.efuse)

.lock
 *(.lock*)

.signature
 *(.signature*)

.user_signatures
 *(.user_signatures*)

.stab
 *(.stab)

.stabstr
 *(.stabstr)

.stab.excl
 *(.stab.excl)

.stab.exclstr
 *(.stab.exclstr)

.stab.index
 *(.stab.index)

.stab.indexstr
 *(.stab.indexstr)

.comment        0x00000000       0x5c
 *(.comment)
 .comment       0x00000000       0x30 src/ASF/common/services/serial/usart_serial.o
                                 0x31 (size before relaxing)
 .comment       0x00000030       0x31 src/ASF/xmega/drivers/usart/usart.o
 .comment       0x00000030       0x31 src/serial.o
 .comment       0x00000030       0x31 src/usb.o
 .comment       0x00000030       0x31 src/ASF/common/drivers/nvm/xmega/xmega_nvm.o
 .comment       0x00000030       0x31 src/ASF/common/services/calendar/calendar.o
 .comment       0x00000030       0x31 src/ASF/common/services/fifo/fifo.o
 .comment       0x00000030       0x31 src/ASF/xmega/drivers/dma/dma.o
 .comment       0x00000030       0x31 src/ASF/xmega/drivers/rtc32/rtc32.o
 .comment       0x00000030       0x31 src/dds.o
 .comment       0x00000030       0x31 src/interpreter.o
 .comment       0x00000030       0x31 src/twi.o
 .comment       0x00000030       0x31 src/ASF/common/boards/user_board/init.o
 .comment       0x00000030       0x31 src/ASF/xmega/drivers/adc/adc.o
 .comment       0x00000030       0x31 src/ASF/xmega/drivers/adc/xmega_aau/adc_aau.o
 .comment       0x00000030       0x31 src/ASF/xmega/drivers/dac/dac.o
 .comment       0x00000030       0x31 src/ASF/xmega/drivers/tc/tc.o
 .comment       0x00000030       0x31 src/ASF/xmega/drivers/twi/twim.o
 .comment       0x00000030       0x31 src/ASF/xmega/drivers/usb/usb_device.o
 .comment       0x00000030       0x31 src/ASF/xmega/services/pwm/pwm.o
 .comment       0x00000030       0x31 src/main.o
 .comment       0x00000030       0x31 src/ASF/common/services/clock/xmega/sysclk.o
 .comment       0x00000030       0x31 src/ASF/common/services/sleepmgr/xmega/sleepmgr.o
 .comment       0x00000030       0x31 src/ASF/common/services/usb/class/cdc/device/udi_cdc.o
 .comment       0x00000030       0x31 src/ASF/common/services/usb/class/cdc/device/udi_cdc_desc.o
 .comment       0x00000030       0x31 src/ASF/common/services/usb/udc/udc.o
 .comment       0x00000030       0x31 src/ASF/common/utils/stdio/read.o
 .comment       0x00000030       0x31 src/ASF/common/utils/stdio/stdio_usb/stdio_usb.o
 .comment       0x00000030       0x31 src/ASF/common/utils/stdio/write.o
 .comment       0x00000030       0x31 src/ASF/xmega/drivers/nvm/nvm.o
 .comment       0x00000030       0x2c c:/program files (x86)/atmel/studio/7.0/toolchain/avr8/avr8-gnu-toolchain/bin/../lib/gcc/avr/5.4.0/../../../../avr/lib/avrxmega6\libprintf_flt.a(vfprintf_flt.o)
                                 0x2d (size before relaxing)
 .comment       0x0000005c       0x31 c:/program files (x86)/atmel/studio/7.0/toolchain/avr8/avr8-gnu-toolchain/bin/../lib/gcc/avr/5.4.0/../../../../avr/lib/avrxmega6\libc.a(strtol.o)
 .comment       0x0000005c       0x31 c:/program files (x86)/atmel/studio/7.0/toolchain/avr8/avr8-gnu-toolchain/bin/../lib/gcc/avr/5.4.0/../../../../avr/lib/avrxmega6\libc.a(fdevopen.o)
 .comment       0x0000005c       0x31 c:/program files (x86)/atmel/studio/7.0/toolchain/avr8/avr8-gnu-toolchain/bin/../lib/gcc/avr/5.4.0/../../../../avr/lib/avrxmega6\libc.a(fputc.o)
 .comment       0x0000005c       0x31 c:/program files (x86)/atmel/studio/7.0/toolchain/avr8/avr8-gnu-toolchain/bin/../lib/gcc/avr/5.4.0/../../../../avr/lib/avrxmega6\libc.a(iob.o)
 .comment       0x0000005c       0x31 c:/program files (x86)/atmel/studio/7.0/toolchain/avr8/avr8-gnu-toolchain/bin/../lib/gcc/avr/5.4.0/../../../../avr/lib/avrxmega6\libc.a(snprintf_p.o)
 .comment       0x0000005c       0x31 c:/program files (x86)/atmel/studio/7.0/toolchain/avr8/avr8-gnu-toolchain/bin/../lib/gcc/avr/5.4.0/../../../../avr/lib/avrxmega6\libc.a(sprintf_p.o)
 .comment       0x0000005c       0x31 c:/program files (x86)/atmel/studio/7.0/toolchain/avr8/avr8-gnu-toolchain/bin/../lib/gcc/avr/5.4.0/../../../../avr/lib/avrxmega6\libc.a(calloc.o)
 .comment       0x0000005c       0x2d c:/program files (x86)/atmel/studio/7.0/toolchain/avr8/avr8-gnu-toolchain/bin/../lib/gcc/avr/5.4.0/../../../../avr/lib/avrxmega6\libc.a(errno.o)
 .comment       0x0000005c       0x31 c:/program files (x86)/atmel/studio/7.0/toolchain/avr8/avr8-gnu-toolchain/bin/../lib/gcc/avr/5.4.0/../../../../avr/lib/avrxmega6\libc.a(malloc.o)
 .comment       0x0000005c       0x31 c:/program files (x86)/atmel/studio/7.0/toolchain/avr8/avr8-gnu-toolchain/bin/../lib/gcc/avr/5.4.0/../../../../avr/lib/avrxmega6\libc.a(strtod.o)

.note.gnu.avr.deviceinfo
                0x00000000       0x44
 .note.gnu.avr.deviceinfo
                0x00000000       0x44 C:/Program Files (x86)/Atmel/Studio/7.0/Packs/Atmel/XMEGAA_DFP/1.1.68/gcc/dev/atxmega256a3bu/avrxmega6/crtatxmega256a3bu.o

.note.gnu.build-id
 *(.note.gnu.build-id)

.debug
 *(.debug)

.line
 *(.line)

.debug_srcinfo
 *(.debug_srcinfo)

.debug_sfnames
 *(.debug_sfnames)

.debug_aranges  0x00000000       0x48
 *(.debug_aranges)
 .debug_aranges
                0x00000000       0x28 src/ASF/xmega/drivers/nvm/nvm_asm.o
 .debug_aranges
                0x00000028       0x20 src/ASF/xmega/drivers/cpu/ccp.o

.debug_pubnames
 *(.debug_pubnames)

.debug_info     0x00000000     0x349f
 *(.debug_info .gnu.linkonce.wi.*)
 .debug_info    0x00000000     0x3379 C:/Program Files (x86)/Atmel/Studio/7.0/Packs/Atmel/XMEGAA_DFP/1.1.68/gcc/dev/atxmega256a3bu/avrxmega6/crtatxmega256a3bu.o
 .debug_info    0x00003379       0x93 src/ASF/xmega/drivers/nvm/nvm_asm.o
 .debug_info    0x0000340c       0x93 src/ASF/xmega/drivers/cpu/ccp.o

.debug_abbrev   0x00000000     0x30ea
 *(.debug_abbrev)
 .debug_abbrev  0x00000000     0x30c4 C:/Program Files (x86)/Atmel/Studio/7.0/Packs/Atmel/XMEGAA_DFP/1.1.68/gcc/dev/atxmega256a3bu/avrxmega6/crtatxmega256a3bu.o
 .debug_abbrev  0x000030c4       0x12 src/ASF/xmega/drivers/nvm/nvm_asm.o
 .debug_abbrev  0x000030d6       0x14 src/ASF/xmega/drivers/cpu/ccp.o

.debug_line     0x00000000      0x52a
 *(.debug_line .debug_line.* .debug_line_end)
 .debug_line    0x00000000      0x39d C:/Program Files (x86)/Atmel/Studio/7.0/Packs/Atmel/XMEGAA_DFP/1.1.68/gcc/dev/atxmega256a3bu/avrxmega6/crtatxmega256a3bu.o
 .debug_line    0x0000039d      0x11f src/ASF/xmega/drivers/nvm/nvm_asm.o
 .debug_line    0x000004bc       0x6e src/ASF/xmega/drivers/cpu/ccp.o

.debug_frame
 *(.debug_frame)

.debug_str      0x00000000     0x21e4
 *(.debug_str)
 .debug_str     0x00000000     0x21e4 C:/Program Files (x86)/Atmel/Studio/7.0/Packs/Atmel/XMEGAA_DFP/1.1.68/gcc/dev/atxmega256a3bu/avrxmega6/crtatxmega256a3bu.o

.debug_loc
 *(.debug_loc)

.debug_macinfo
 *(.debug_macinfo)

.debug_weaknames
 *(.debug_weaknames)

.debug_funcnames
 *(.debug_funcnames)

.debug_typenames
 *(.debug_typenames)

.debug_varnames
 *(.debug_varnames)

.debug_pubtypes
 *(.debug_pubtypes)

.debug_ranges   0x00000000       0x20
 *(.debug_ranges)
 .debug_ranges  0x00000000       0x20 src/ASF/xmega/drivers/nvm/nvm_asm.o

.debug_macro
 *(.debug_macro)
OUTPUT(FindMeSAT_SW.elf elf32-avr)
LOAD linker stubs
